
PWM_Output.elf:     file format elf32-littleriscv
PWM_Output.elf
architecture: riscv:rv32, flags 0x00000112:
EXEC_P, HAS_SYMS, D_PAGED
start address 0x00000000

Program Header:
    LOAD off    0x00001000 vaddr 0x00000000 paddr 0x00000000 align 2**12
         filesz 0x000063ac memsz 0x000063ac flags r-x
    LOAD off    0x00008000 vaddr 0x20000000 paddr 0x000063ac align 2**12
         filesz 0x000001b0 memsz 0x000001d0 flags rw-
    LOAD off    0x00008800 vaddr 0x20007800 paddr 0x20007800 align 2**12
         filesz 0x00000000 memsz 0x00000800 flags rw-

Sections:
Idx Name          Size      VMA       LMA       File off  Algn
  0 .init         00000004  00000000  00000000  00001000  2**1
                  CONTENTS, ALLOC, LOAD, READONLY, CODE
  1 .vector       000001bc  00000004  00000004  00001004  2**1
                  CONTENTS, ALLOC, LOAD, READONLY, CODE
  2 .text         000061ec  000001c0  000001c0  000011c0  2**3
                  CONTENTS, ALLOC, LOAD, READONLY, CODE
  3 .fini         00000000  000063ac  000063ac  000081b0  2**0
                  CONTENTS, ALLOC, LOAD, CODE
  4 .dalign       00000000  20000000  20000000  000081b0  2**0
                  CONTENTS
  5 .dlalign      00000000  000063ac  000063ac  000081b0  2**0
                  CONTENTS
  6 .data         000001b0  20000000  000063ac  00008000  2**2
                  CONTENTS, ALLOC, LOAD, DATA
  7 .bss          00000020  200001b0  0000655c  000081b0  2**2
                  ALLOC
  8 .stack        00000800  20007800  20007800  00008800  2**0
                  ALLOC
  9 .debug_info   000137dc  00000000  00000000  000081b0  2**0
                  CONTENTS, READONLY, DEBUGGING
 10 .debug_abbrev 00003056  00000000  00000000  0001b98c  2**0
                  CONTENTS, READONLY, DEBUGGING
 11 .debug_aranges 00000b48  00000000  00000000  0001e9e8  2**3
                  CONTENTS, READONLY, DEBUGGING
 12 .debug_ranges 00000a20  00000000  00000000  0001f530  2**3
                  CONTENTS, READONLY, DEBUGGING
 13 .debug_line   0000bfd5  00000000  00000000  0001ff50  2**0
                  CONTENTS, READONLY, DEBUGGING
 14 .debug_str    00003785  00000000  00000000  0002bf25  2**0
                  CONTENTS, READONLY, DEBUGGING
 15 .comment      00000033  00000000  00000000  0002f6aa  2**0
                  CONTENTS, READONLY
 16 .debug_frame  00002d40  00000000  00000000  0002f6e0  2**2
                  CONTENTS, READONLY, DEBUGGING
SYMBOL TABLE:
00000000 l    d  .init	00000000 .init
00000004 l    d  .vector	00000000 .vector
000001c0 l    d  .text	00000000 .text
000063ac l    d  .fini	00000000 .fini
20000000 l    d  .dalign	00000000 .dalign
000063ac l    d  .dlalign	00000000 .dlalign
20000000 l    d  .data	00000000 .data
200001b0 l    d  .bss	00000000 .bss
20007800 l    d  .stack	00000000 .stack
00000000 l    d  .debug_info	00000000 .debug_info
00000000 l    d  .debug_abbrev	00000000 .debug_abbrev
00000000 l    d  .debug_aranges	00000000 .debug_aranges
00000000 l    d  .debug_ranges	00000000 .debug_ranges
00000000 l    d  .debug_line	00000000 .debug_line
00000000 l    d  .debug_str	00000000 .debug_str
00000000 l    d  .comment	00000000 .comment
00000000 l    d  .debug_frame	00000000 .debug_frame
00000000 l    df *ABS*	00000000 ./Startup/startup_ch32v30x_D8.o
00000004 l       .vector	00000000 _vector_base
00000000 l    df *ABS*	00000000 ch32v30x_it.c
00000000 l    df *ABS*	00000000 main.c
200001b0 l     O .bss	00000001 is_recieving.5358
200001b1 l     O .bss	00000001 is_recieving.5363
00000000 l    df *ABS*	00000000 system_ch32v30x.c
000008cc l     F .text	00000014 SetSysClock
000008e0 l     F .text	00000114 SetSysClockTo96_HSE
00000000 l    df *ABS*	00000000 ch32v30x_adc.c
00000000 l    df *ABS*	00000000 ch32v30x_dbgmcu.c
00000000 l    df *ABS*	00000000 ch32v30x_dma.c
00000000 l    df *ABS*	00000000 ch32v30x_gpio.c
00000000 l    df *ABS*	00000000 ch32v30x_misc.c
00000000 l    df *ABS*	00000000 ch32v30x_rcc.c
2000012c l     O .data	00000010 APBAHBPrescTable
200001a4 l     O .data	00000004 ADCPrescTable
00000000 l    df *ABS*	00000000 ch32v30x_tim.c
00000000 l    df *ABS*	00000000 ch32v30x_usart.c
00000000 l    df *ABS*	00000000 adc.c
00000000 l    df *ABS*	00000000 comm_protocol.c
000061a0 l     O .text	00000030 cmd_handlers
200001bc l     O .bss	00000004 parser_state.5962
00000000 l    df *ABS*	00000000 led.c
00000000 l    df *ABS*	00000000 motor.c
000061d0 l     O .text	00000030 config
00000000 l    df *ABS*	00000000 pwm.c
00000000 l    df *ABS*	00000000 usart.c
00000000 l    df *ABS*	00000000 debug.c
200001c0 l     O .bss	00000001 p_us
200001c2 l     O .bss	00000002 p_ms
200001a8 l     O .data	00000004 curbrk.5349
00000000 l    df *ABS*	00000000 adddf3.c
00000000 l    df *ABS*	00000000 divdf3.c
00000000 l    df *ABS*	00000000 fixunsdfsi.c
00000000 l    df *ABS*	00000000 floatsidf.c
00000000 l    df *ABS*	00000000 libgcc2.c
00000000 l    df *ABS*	00000000 malloc.c
00000000 l    df *ABS*	00000000 memcpy.c
00000000 l    df *ABS*	00000000 nano-mallocr.c
00000000 l    df *ABS*	00000000 nano-mallocr.c
00000000 l    df *ABS*	00000000 sbrkr.c
00000000 l    df *ABS*	00000000 vsnprintf.c
00000000 l    df *ABS*	00000000 mlock.c
00000000 l    df *ABS*	00000000 nano-vfprintf.c
00000000 l    df *ABS*	00000000 nano-vfprintf_i.c
00000000 l    df *ABS*	00000000 memchr.c
00000000 l    df *ABS*	00000000 memmove.c
00000000 l    df *ABS*	00000000 nano-mallocr.c
00000000 l    df *ABS*	00000000 nano-mallocr.c
00000000 l    df *ABS*	00000000 libgcc2.c
00000000 l    df *ABS*	00000000 impure.c
2000013c l     O .data	00000060 impure_data
00000000 l    df *ABS*	00000000 reent.c
00006108 g     F .text	00000014 _malloc_usable_size_r
000009f4  w      .text	00000000 EXTI2_IRQHandler
000009f4  w      .text	00000000 TIM8_TRG_COM_IRQHandler
000009f4  w      .text	00000000 TIM8_CC_IRQHandler
000031b6 g     F .text	00000072 ExecuteLocalCommand
0000463e g     F .text	0000004c USART1_SendString_Len
000027e8 g     F .text	00000022 TIM_SetCompare2
000013a2 g     F .text	00000040 DMA_Cmd
000009f4  w      .text	00000000 UART8_IRQHandler
00003bd8 g     F .text	0000002e MotorInit
00003fae g     F .text	0000002a Motor_Stop
000035ea g     F .text	00000242 HandleEspSpocolCommand
200009a0 g       .data	00000000 __global_pointer$
000009f4  w      .text	00000000 TIM1_CC_IRQHandler
00000270 g     F .text	00000016 HardFault_Handler
00002ec4 g     F .text	0000005c ADCInit
00005962 g     F .text	00000002 __malloc_unlock
00000c1e g     F .text	0000003e ADC_DMACmd
000009f4  w      .text	00000000 TIM6_IRQHandler
00003fd8 g     F .text	00000180 TIM8_PWMOut_Init
000038d8 g     F .text	0000018c TIM3_PWMOut_Init
0000268a g     F .text	00000048 TIM_OC1PreloadConfig
000009f4  w      .text	00000000 SysTick_Handler
00000cae g     F .text	00000022 ADC_StartCalibration
00001818 g     F .text	000000cc NVIC_Init
000009f4  w      .text	00000000 PVD_IRQHandler
000009f4  w      .text	00000000 SDIO_IRQHandler
0000606a g     F .text	00000046 memmove
000009f4  w      .text	00000000 TIM9_BRK_IRQHandler
000009f4  w      .text	00000000 DMA2_Channel8_IRQHandler
00000268 g     F .text	00000008 NMI_Handler
000009f4  w      .text	00000000 EXTI3_IRQHandler
00000fd0 g     F .text	00000018 DBGMCU_GetCHIPID
000045fa g     F .text	00000044 USART1_SendByte
00002b70 g     F .text	00000044 USART_GetFlagStatus
000009f4  w      .text	00000000 DMA2_Channel9_IRQHandler
000009f4  w      .text	00000000 TIM10_CC_IRQHandler
200001cc g     O .bss	00000004 errno
200001b0 g       .bss	00000000 _sbss
00000800 g       *ABS*	00000000 __stack_size
00003c06 g     F .text	00000344 setSpeed
000012fa g     F .text	000000a8 DMA_Init
000009f4  w      .text	00000000 USBFS_IRQHandler
20000000 g     O .data	0000011c comm_handler
000025d8 g     F .text	00000060 TIM_CtrlPWMOutputs
000056a8 g     F .text	000000b2 memcpy
00000be0 g     F .text	0000003e ADC_Cmd
00001648 g     F .text	000001d0 GPIO_PinRemapConfig
00005a42 g     F .text	00000262 _svfprintf_r
000055b6 g     F .text	00000070 .hidden __floatsidf
000009f4  w      .text	00000000 EXTI0_IRQHandler
000009f4  w      .text	00000000 I2C2_EV_IRQHandler
000009f4  w      .text	00000000 TIM10_TRG_COM_IRQHandler
00002588 g     F .text	00000050 TIM_Cmd
00002770 g     F .text	00000056 TIM_OC4PreloadConfig
200001a0 g     O .data	00000004 SystemCoreClock
00002b4c g     F .text	00000024 USART_ReceiveData
00005694 g     F .text	0000000a malloc
000042b8 g     F .text	00000032 PWMOutputInit
00000004 g       .init	00000000 _einit
00005950 g     F .text	00000010 vsnprintf
00001cfe g     F .text	00000046 RCC_APB2PeriphClockCmd
0000555a g     F .text	0000005c .hidden __fixunsdfsi
000009f4  w      .text	00000000 ADC1_2_IRQHandler
000013e2 g     F .text	00000222 GPIO_Init
000018e4 g     F .text	00000046 RCC_ADCCLKConfig
000009f4  w      .text	00000000 Break_Point_Handler
200001b4 g     O .bss	00000004 NVIC_Priority_Group
000009f4  w      .text	00000000 SPI1_IRQHandler
00000c5c g     F .text	00000022 ADC_ResetCalibration
00002a04 g     F .text	00000058 USART_Cmd
000058cc g     F .text	0000002a _sbrk_r
000009f4  w      .text	00000000 TAMPER_IRQHandler
00003880 g     F .text	00000058 LED_Init
00002272 g     F .text	000001ba TIM_OC3Init
00002cae g     F .text	0000004c USART_ClearITPendingBit
000009f4  w      .text	00000000 TIM8_UP_IRQHandler
00001d44 g     F .text	00000046 RCC_APB1PeriphClockCmd
0000487e g     F .text	00000730 .hidden __adddf3
000009f4  w      .text	00000000 Ecall_M_Mode_Handler
20007800 g       .stack	00000000 _heap_end
00003a64 g     F .text	00000174 TIM4_PWMOut_Init
00002f20 g     F .text	000001e8 ParseCommunicationFrame
000060b0 g     F .text	00000058 _realloc_r
000009f4  w      .text	00000000 DMA2_Channel2_IRQHandler
00001cb8 g     F .text	00000046 RCC_AHBPeriphClockCmd
000009f4  w      .text	00000000 DMA1_Channel4_IRQHandler
00000d44 g     F .text	00000248 ADC_RegularChannelConfig
00004824 g     F .text	0000005a _sbrk
000044e0 g     F .text	0000011a UART4_Init
000009f4  w      .text	00000000 TIM9_UP_IRQHandler
000009f4  w      .text	00000000 USART3_IRQHandler
000009f4  w      .text	00000000 RTC_IRQHandler
00000cd0 g     F .text	00000030 ADC_GetCalibrationStatus
200001d0 g       .bss	00000000 _ebss
00002bb4 g     F .text	000000fa USART_GetITStatus
000009f4  w      .text	00000000 DMA1_Channel7_IRQHandler
00001f38 g     F .text	0000017a TIM_OC1Init
00000d00 g     F .text	00000044 ADC_SoftwareStartConvCmd
00002728 g     F .text	00000048 TIM_OC3PreloadConfig
0000468a g     F .text	00000044 UART4_SendByte
00005950 g     F .text	00000010 vsniprintf
00000c7e g     F .text	00000030 ADC_GetResetCalibrationStatus
200001b8 g     O .bss	00000002 voltage
000009f4  w      .text	00000000 CAN1_RX1_IRQHandler
000047de g     F .text	00000046 Delay_Init
000009f4  w      .text	00000000 UART5_IRQHandler
00004158 g     F .text	00000160 TIM9_PWMOut_Init
00001604 g     F .text	00000022 GPIO_SetBits
000009f4  w      .text	00000000 TIM4_IRQHandler
200001bb g     O .bss	00000001 current_angle_back
00002638 g     F .text	00000052 TIM_ARRPreloadConfig
000009f4  w      .text	00000000 DMA2_Channel1_IRQHandler
000009f4  w      .text	00000000 I2C1_EV_IRQHandler
00005964 g     F .text	000000de __ssputs_r
0000192a g     F .text	0000038e RCC_GetClocksFreq
000009f4  w      .text	00000000 DMA1_Channel6_IRQHandler
00005626 g     F .text	0000006e .hidden __clzsi2
00000450 g     F .text	00000130 UART4_IRQHandler
000009f4  w      .text	00000000 DMA2_Channel4_IRQHandler
00006052 g     F .text	00000018 memchr
00002850 g     F .text	000001b4 USART_Init
0000575a g     F .text	000000a4 _free_r
00006200 g     O .text	00000030 Servers
000009f4  w      .text	00000000 TIM3_IRQHandler
000009f4  w      .text	00000000 RCC_IRQHandler
000043e0 g     F .text	00000100 USART1_Init
000009f4  w      .text	00000000 TIM1_TRG_COM_IRQHandler
0000359c g     F .text	00000036 HandleExtStopCommand
000009f4  w      .text	00000000 DMA1_Channel1_IRQHandler
00000000 g       .init	00000000 _start
000009f4  w      .text	00000000 DMA2_Channel7_IRQHandler
2000011c g     O .data	00000010 AHBPrescTable
000035d2 g     F .text	00000018 HandleExtMochaCommand
000026d2 g     F .text	00000056 TIM_OC2PreloadConfig
000009f4  w      .text	00000000 EXTI15_10_IRQHandler
000020b2 g     F .text	000001c0 TIM_OC2Init
00002a5c g     F .text	000000c4 USART_ITConfig
00003228 g     F .text	00000138 ForwardToDevice
00001626 g     F .text	00000022 GPIO_ResetBits
000009f4  w      .text	00000000 TIM7_IRQHandler
20000000 g       .dalign	00000000 _data_vma
000009f4  w      .text	00000000 TIM5_IRQHandler
0000280a g     F .text	00000022 TIM_SetCompare3
0000242c g     F .text	0000015c TIM_OC4Init
000009f4  w      .text	00000000 EXTI9_5_IRQHandler
00004fae g     F .text	000005ac .hidden __divdf3
00003f7c g     F .text	00000032 Motor_Back
000058f6 g     F .text	0000005a _vsnprintf_r
00005960 g     F .text	00000002 __malloc_lock
000009f4  w      .text	00000000 SPI2_IRQHandler
000001c0 g     F .text	000000a8 memset
00002e0c g     F .text	000000b8 DMA_Tx_Init
00000286 g     F .text	0000009a main
000009f4  w      .text	00000000 TIM10_BRK_IRQHandler
000009f4  w      .text	00000000 TIM9_CC_IRQHandler
000009f4  w      .text	00000000 DMA2_Channel5_IRQHandler
00003108 g     F .text	000000ae ProcessCompleteFrame
000057fe g     F .text	000000ce _malloc_r
000009f4  w      .text	00000000 DMA1_Channel5_IRQHandler
000009f4  w      .text	00000000 EXTI4_IRQHandler
000009f4  w      .text	00000000 USB_LP_CAN1_RX0_IRQHandler
000046ce g     F .text	00000088 USART1_Printf
0000282c g     F .text	00000024 TIM_SetCompare4
00000f8c g     F .text	00000044 ADC_BufferCmd
200001ba g     O .bss	00000001 current_angle_forward
00000580 g     F .text	00000098 SystemInit
000009f4  w      .text	00000000 RNG_IRQHandler
000009f4  w      .text	00000000 USB_HP_CAN1_TX_IRQHandler
00006270 g     O .text	00000100 .hidden __clz_tab
00000000 g       .init	00000000 _sinit
000009f4  w      .text	00000000 DMA1_Channel3_IRQHandler
00005ca4 g     F .text	0000010c _printf_common
00003360 g     F .text	0000023c HandleExtColCommand
200001ac g     O .data	00000004 _impure_ptr
00002cfa g     F .text	00000112 ADC_Function_Init
000009f4  w      .text	00000000 TIM1_UP_IRQHandler
00003868 g     F .text	00000018 HandleEspMochaCommand
00005a42 g     F .text	00000262 _svfiprintf_r
000009f4  w      .text	00000000 WWDG_IRQHandler
000009f4  w      .text	00000000 DMA2_Channel11_IRQHandler
000009f4  w      .text	00000000 Ecall_U_Mode_Handler
000009f4  w      .text	00000000 DMA2_Channel6_IRQHandler
000009f4  w      .text	00000000 TIM2_IRQHandler
20008000 g       .stack	00000000 _eusrstack
000058f6 g     F .text	0000005a _vsniprintf_r
000009f4  w      .text	00000000 SW_Handler
00000a80 g     F .text	00000060 ADC_DeInit
000009f4  w      .text	00000000 TIM1_BRK_IRQHandler
00000ae0 g     F .text	00000100 ADC_Init
00002b20 g     F .text	0000002c USART_SendData
000009f4  w      .text	00000000 DMA2_Channel10_IRQHandler
000009f4  w      .text	00000000 EXTI1_IRQHandler
000043aa g     F .text	00000036 Servo_Reset
200001b0 g       .data	00000000 _edata
200001d0 g       .bss	00000000 _end
00001dd0 g     F .text	00000168 TIM_TimeBaseInit
000009f4  w      .text	00000000 RTCAlarm_IRQHandler
00004756 g     F .text	00000088 UART4_Printf
000063ac g       .dlalign	00000000 _data_lma
000009f4  w      .text	00000000 TIM10_UP_IRQHandler
000009f4  w      .text	00000000 TIM9_TRG_COM_IRQHandler
000009f4  w      .text	00000000 UART7_IRQHandler
000009f4  w      .text	00000000 USART2_IRQHandler
000009f4  w      .text	00000000 UART6_IRQHandler
00000618 g     F .text	000002b4 SystemCoreClockUpdate
000042ea g     F .text	000000c0 SetServerAngle
000009f4  w      .text	00000000 I2C2_ER_IRQHandler
0000382c g     F .text	0000003c HandleEspStopCommand
000009f4  w      .text	00000000 DMA1_Channel2_IRQHandler
000009f4  w      .text	00000000 TIM8_BRK_IRQHandler
000009f6  w      .text	00000000 handle_reset
000009f4  w      .text	00000000 CAN1_SCE_IRQHandler
000009f4  w      .text	00000000 FLASH_IRQHandler
00000320 g     F .text	00000130 USART1_IRQHandler
00005db0 g     F .text	000002a2 _printf_i
000009f4  w      .text	00000000 SPI3_IRQHandler
200001c8 g     O .bss	00000004 __malloc_sbrk_start
00001d8a g     F .text	00000046 RCC_APB2PeriphResetCmd
000009f4  w      .text	00000000 I2C1_ER_IRQHandler
00003f4a g     F .text	00000032 Motor_Advanced
00000fe8 g     F .text	00000312 DMA_DeInit
200001c4 g     O .bss	00000004 __malloc_free_list
000027c6 g     F .text	00000022 TIM_SetCompare1
0000569e g     F .text	0000000a free
000009f4  w      .text	00000000 DMA2_Channel3_IRQHandler



Disassembly of section .init:

00000000 <_sinit>:
   0:	1f70006f          	j	9f6 <handle_reset>

Disassembly of section .vector:

00000004 <_vector_base>:
	...
   c:	0268                	addi	a0,sp,268
   e:	0000                	unimp
  10:	0270                	addi	a2,sp,268
  12:	0000                	unimp
  14:	0000                	unimp
  16:	0000                	unimp
  18:	09f4                	addi	a3,sp,220
	...
  22:	0000                	unimp
  24:	09f4                	addi	a3,sp,220
  26:	0000                	unimp
  28:	09f4                	addi	a3,sp,220
	...
  32:	0000                	unimp
  34:	09f4                	addi	a3,sp,220
  36:	0000                	unimp
  38:	0000                	unimp
  3a:	0000                	unimp
  3c:	09f4                	addi	a3,sp,220
  3e:	0000                	unimp
  40:	0000                	unimp
  42:	0000                	unimp
  44:	09f4                	addi	a3,sp,220
  46:	0000                	unimp
  48:	09f4                	addi	a3,sp,220
  4a:	0000                	unimp
  4c:	09f4                	addi	a3,sp,220
  4e:	0000                	unimp
  50:	09f4                	addi	a3,sp,220
  52:	0000                	unimp
  54:	09f4                	addi	a3,sp,220
  56:	0000                	unimp
  58:	09f4                	addi	a3,sp,220
  5a:	0000                	unimp
  5c:	09f4                	addi	a3,sp,220
  5e:	0000                	unimp
  60:	09f4                	addi	a3,sp,220
  62:	0000                	unimp
  64:	09f4                	addi	a3,sp,220
  66:	0000                	unimp
  68:	09f4                	addi	a3,sp,220
  6a:	0000                	unimp
  6c:	09f4                	addi	a3,sp,220
  6e:	0000                	unimp
  70:	09f4                	addi	a3,sp,220
  72:	0000                	unimp
  74:	09f4                	addi	a3,sp,220
  76:	0000                	unimp
  78:	09f4                	addi	a3,sp,220
  7a:	0000                	unimp
  7c:	09f4                	addi	a3,sp,220
  7e:	0000                	unimp
  80:	09f4                	addi	a3,sp,220
  82:	0000                	unimp
  84:	09f4                	addi	a3,sp,220
  86:	0000                	unimp
  88:	09f4                	addi	a3,sp,220
  8a:	0000                	unimp
  8c:	09f4                	addi	a3,sp,220
  8e:	0000                	unimp
  90:	09f4                	addi	a3,sp,220
  92:	0000                	unimp
  94:	09f4                	addi	a3,sp,220
  96:	0000                	unimp
  98:	09f4                	addi	a3,sp,220
  9a:	0000                	unimp
  9c:	09f4                	addi	a3,sp,220
  9e:	0000                	unimp
  a0:	09f4                	addi	a3,sp,220
  a2:	0000                	unimp
  a4:	09f4                	addi	a3,sp,220
  a6:	0000                	unimp
  a8:	09f4                	addi	a3,sp,220
  aa:	0000                	unimp
  ac:	09f4                	addi	a3,sp,220
  ae:	0000                	unimp
  b0:	09f4                	addi	a3,sp,220
  b2:	0000                	unimp
  b4:	09f4                	addi	a3,sp,220
  b6:	0000                	unimp
  b8:	09f4                	addi	a3,sp,220
  ba:	0000                	unimp
  bc:	09f4                	addi	a3,sp,220
  be:	0000                	unimp
  c0:	09f4                	addi	a3,sp,220
  c2:	0000                	unimp
  c4:	09f4                	addi	a3,sp,220
  c6:	0000                	unimp
  c8:	09f4                	addi	a3,sp,220
  ca:	0000                	unimp
  cc:	09f4                	addi	a3,sp,220
  ce:	0000                	unimp
  d0:	09f4                	addi	a3,sp,220
  d2:	0000                	unimp
  d4:	09f4                	addi	a3,sp,220
  d6:	0000                	unimp
  d8:	0320                	addi	s0,sp,392
  da:	0000                	unimp
  dc:	09f4                	addi	a3,sp,220
  de:	0000                	unimp
  e0:	09f4                	addi	a3,sp,220
  e2:	0000                	unimp
  e4:	09f4                	addi	a3,sp,220
  e6:	0000                	unimp
  e8:	09f4                	addi	a3,sp,220
  ea:	0000                	unimp
  ec:	0000                	unimp
  ee:	0000                	unimp
  f0:	09f4                	addi	a3,sp,220
  f2:	0000                	unimp
  f4:	09f4                	addi	a3,sp,220
  f6:	0000                	unimp
  f8:	09f4                	addi	a3,sp,220
  fa:	0000                	unimp
  fc:	09f4                	addi	a3,sp,220
  fe:	0000                	unimp
 100:	09f4                	addi	a3,sp,220
 102:	0000                	unimp
 104:	0000                	unimp
 106:	0000                	unimp
 108:	09f4                	addi	a3,sp,220
 10a:	0000                	unimp
 10c:	09f4                	addi	a3,sp,220
 10e:	0000                	unimp
 110:	09f4                	addi	a3,sp,220
 112:	0000                	unimp
 114:	0450                	addi	a2,sp,516
 116:	0000                	unimp
 118:	09f4                	addi	a3,sp,220
 11a:	0000                	unimp
 11c:	09f4                	addi	a3,sp,220
 11e:	0000                	unimp
 120:	09f4                	addi	a3,sp,220
 122:	0000                	unimp
 124:	09f4                	addi	a3,sp,220
 126:	0000                	unimp
 128:	09f4                	addi	a3,sp,220
 12a:	0000                	unimp
 12c:	09f4                	addi	a3,sp,220
 12e:	0000                	unimp
 130:	09f4                	addi	a3,sp,220
 132:	0000                	unimp
 134:	09f4                	addi	a3,sp,220
	...
 14e:	0000                	unimp
 150:	09f4                	addi	a3,sp,220
	...
 15e:	0000                	unimp
 160:	09f4                	addi	a3,sp,220
 162:	0000                	unimp
 164:	09f4                	addi	a3,sp,220
 166:	0000                	unimp
 168:	09f4                	addi	a3,sp,220
 16a:	0000                	unimp
 16c:	09f4                	addi	a3,sp,220
 16e:	0000                	unimp
 170:	09f4                	addi	a3,sp,220
 172:	0000                	unimp
 174:	09f4                	addi	a3,sp,220
 176:	0000                	unimp
 178:	09f4                	addi	a3,sp,220
 17a:	0000                	unimp
 17c:	09f4                	addi	a3,sp,220
 17e:	0000                	unimp
 180:	09f4                	addi	a3,sp,220
 182:	0000                	unimp
 184:	09f4                	addi	a3,sp,220
 186:	0000                	unimp
 188:	09f4                	addi	a3,sp,220
 18a:	0000                	unimp
 18c:	09f4                	addi	a3,sp,220
 18e:	0000                	unimp
 190:	09f4                	addi	a3,sp,220
 192:	0000                	unimp
 194:	09f4                	addi	a3,sp,220
 196:	0000                	unimp
 198:	09f4                	addi	a3,sp,220
 19a:	0000                	unimp
 19c:	09f4                	addi	a3,sp,220
 19e:	0000                	unimp
 1a0:	09f4                	addi	a3,sp,220
	...

Disassembly of section .text:

000001c0 <memset>:
     1c0:	433d                	li	t1,15
     1c2:	872a                	mv	a4,a0
     1c4:	02c37363          	bgeu	t1,a2,1ea <memset+0x2a>
     1c8:	00f77793          	andi	a5,a4,15
     1cc:	efbd                	bnez	a5,24a <memset+0x8a>
     1ce:	e5ad                	bnez	a1,238 <memset+0x78>
     1d0:	ff067693          	andi	a3,a2,-16
     1d4:	8a3d                	andi	a2,a2,15
     1d6:	96ba                	add	a3,a3,a4
     1d8:	c30c                	sw	a1,0(a4)
     1da:	c34c                	sw	a1,4(a4)
     1dc:	c70c                	sw	a1,8(a4)
     1de:	c74c                	sw	a1,12(a4)
     1e0:	0741                	addi	a4,a4,16
     1e2:	fed76be3          	bltu	a4,a3,1d8 <memset+0x18>
     1e6:	e211                	bnez	a2,1ea <memset+0x2a>
     1e8:	8082                	ret
     1ea:	40c306b3          	sub	a3,t1,a2
     1ee:	068a                	slli	a3,a3,0x2
     1f0:	00000297          	auipc	t0,0x0
     1f4:	9696                	add	a3,a3,t0
     1f6:	00a68067          	jr	10(a3)
     1fa:	00b70723          	sb	a1,14(a4)
     1fe:	00b706a3          	sb	a1,13(a4)
     202:	00b70623          	sb	a1,12(a4)
     206:	00b705a3          	sb	a1,11(a4)
     20a:	00b70523          	sb	a1,10(a4)
     20e:	00b704a3          	sb	a1,9(a4)
     212:	00b70423          	sb	a1,8(a4)
     216:	00b703a3          	sb	a1,7(a4)
     21a:	00b70323          	sb	a1,6(a4)
     21e:	00b702a3          	sb	a1,5(a4)
     222:	00b70223          	sb	a1,4(a4)
     226:	00b701a3          	sb	a1,3(a4)
     22a:	00b70123          	sb	a1,2(a4)
     22e:	00b700a3          	sb	a1,1(a4)
     232:	00b70023          	sb	a1,0(a4)
     236:	8082                	ret
     238:	0ff5f593          	andi	a1,a1,255
     23c:	00859693          	slli	a3,a1,0x8
     240:	8dd5                	or	a1,a1,a3
     242:	01059693          	slli	a3,a1,0x10
     246:	8dd5                	or	a1,a1,a3
     248:	b761                	j	1d0 <memset+0x10>
     24a:	00279693          	slli	a3,a5,0x2
     24e:	00000297          	auipc	t0,0x0
     252:	9696                	add	a3,a3,t0
     254:	8286                	mv	t0,ra
     256:	fa8680e7          	jalr	-88(a3)
     25a:	8096                	mv	ra,t0
     25c:	17c1                	addi	a5,a5,-16
     25e:	8f1d                	sub	a4,a4,a5
     260:	963e                	add	a2,a2,a5
     262:	f8c374e3          	bgeu	t1,a2,1ea <memset+0x2a>
     266:	b7a5                	j	1ce <memset+0xe>

00000268 <NMI_Handler>:
     268:	1141                	addi	sp,sp,-16
     26a:	c622                	sw	s0,12(sp)
     26c:	0800                	addi	s0,sp,16
     26e:	a001                	j	26e <NMI_Handler+0x6>

00000270 <HardFault_Handler>:
     270:	1141                	addi	sp,sp,-16
     272:	c622                	sw	s0,12(sp)
     274:	0800                	addi	s0,sp,16
     276:	e000e7b7          	lui	a5,0xe000e
     27a:	beef0737          	lui	a4,0xbeef0
     27e:	08070713          	addi	a4,a4,128 # beef0080 <_eusrstack+0x9eee8080>
     282:	c7b8                	sw	a4,72(a5)
     284:	a001                	j	284 <HardFault_Handler+0x14>

00000286 <main>:
     286:	1141                	addi	sp,sp,-16
     288:	c606                	sw	ra,12(sp)
     28a:	c422                	sw	s0,8(sp)
     28c:	0800                	addi	s0,sp,16
     28e:	2669                	jal	618 <SystemCoreClockUpdate>
     290:	54e040ef          	jal	ra,47de <Delay_Init>
     294:	5ec030ef          	jal	ra,3880 <LED_Init>
     298:	67f1                	lui	a5,0x1c
     29a:	20078513          	addi	a0,a5,512 # 1c200 <_data_lma+0x15e54>
     29e:	142040ef          	jal	ra,43e0 <USART1_Init>
     2a2:	67f1                	lui	a5,0x1c
     2a4:	20078513          	addi	a0,a5,512 # 1c200 <_data_lma+0x15e54>
     2a8:	238040ef          	jal	ra,44e0 <UART4_Init>
     2ac:	200007b7          	lui	a5,0x20000
     2b0:	1a07a783          	lw	a5,416(a5) # 200001a0 <SystemCoreClock>
     2b4:	85be                	mv	a1,a5
     2b6:	6799                	lui	a5,0x6
     2b8:	11c78513          	addi	a0,a5,284 # 611c <_malloc_usable_size_r+0x14>
     2bc:	412040ef          	jal	ra,46ce <USART1_Printf>
     2c0:	511000ef          	jal	ra,fd0 <DBGMCU_GetCHIPID>
     2c4:	87aa                	mv	a5,a0
     2c6:	85be                	mv	a1,a5
     2c8:	6799                	lui	a5,0x6
     2ca:	12c78513          	addi	a0,a5,300 # 612c <_malloc_usable_size_r+0x24>
     2ce:	400040ef          	jal	ra,46ce <USART1_Printf>
     2d2:	4ff000ef          	jal	ra,fd0 <DBGMCU_GetCHIPID>
     2d6:	87aa                	mv	a5,a0
     2d8:	85be                	mv	a1,a5
     2da:	6799                	lui	a5,0x6
     2dc:	12c78513          	addi	a0,a5,300 # 612c <_malloc_usable_size_r+0x24>
     2e0:	476040ef          	jal	ra,4756 <UART4_Printf>
     2e4:	7d5030ef          	jal	ra,42b8 <PWMOutputInit>
     2e8:	3dd020ef          	jal	ra,2ec4 <ADCInit>
     2ec:	0ed030ef          	jal	ra,3bd8 <MotorInit>
     2f0:	0ba040ef          	jal	ra,43aa <Servo_Reset>
     2f4:	200007b7          	lui	a5,0x20000
     2f8:	00078793          	mv	a5,a5
     2fc:	1187c783          	lbu	a5,280(a5) # 20000118 <_data_vma+0x118>
     300:	0ff7f793          	andi	a5,a5,255
     304:	dbe5                	beqz	a5,2f4 <main+0x6e>
     306:	200007b7          	lui	a5,0x20000
     30a:	00078793          	mv	a5,a5
     30e:	10078c23          	sb	zero,280(a5) # 20000118 <_data_vma+0x118>
     312:	200007b7          	lui	a5,0x20000
     316:	00078513          	mv	a0,a5
     31a:	407020ef          	jal	ra,2f20 <ParseCommunicationFrame>
     31e:	bfd9                	j	2f4 <main+0x6e>

00000320 <USART1_IRQHandler>:
     320:	1101                	addi	sp,sp,-32
     322:	ce22                	sw	s0,28(sp)
     324:	1000                	addi	s0,sp,32
     326:	52500593          	li	a1,1317
     32a:	400147b7          	lui	a5,0x40014
     32e:	80078513          	addi	a0,a5,-2048 # 40013800 <_eusrstack+0x2000b800>
     332:	083020ef          	jal	ra,2bb4 <USART_GetITStatus>
     336:	87aa                	mv	a5,a0
     338:	10078763          	beqz	a5,446 <USART1_IRQHandler+0x126>
     33c:	400147b7          	lui	a5,0x40014
     340:	80078513          	addi	a0,a5,-2048 # 40013800 <_eusrstack+0x2000b800>
     344:	009020ef          	jal	ra,2b4c <USART_ReceiveData>
     348:	87aa                	mv	a5,a0
     34a:	fef407a3          	sb	a5,-17(s0)
     34e:	fef44703          	lbu	a4,-17(s0)
     352:	0aa00793          	li	a5,170
     356:	00f71c63          	bne	a4,a5,36e <USART1_IRQHandler+0x4e>
     35a:	4705                	li	a4,1
     35c:	80e18823          	sb	a4,-2032(gp) # 200001b0 <_edata>
     360:	200007b7          	lui	a5,0x20000
     364:	00078793          	mv	a5,a5
     368:	10079423          	sh	zero,264(a5) # 20000108 <_data_vma+0x108>
     36c:	a071                	j	3f8 <USART1_IRQHandler+0xd8>
     36e:	fef44703          	lbu	a4,-17(s0)
     372:	0ff00793          	li	a5,255
     376:	08f71163          	bne	a4,a5,3f8 <USART1_IRQHandler+0xd8>
     37a:	80018823          	sb	zero,-2032(gp) # 200001b0 <_edata>
     37e:	200007b7          	lui	a5,0x20000
     382:	00078793          	mv	a5,a5
     386:	4705                	li	a4,1
     388:	10e78c23          	sb	a4,280(a5) # 20000118 <_data_vma+0x118>
     38c:	200007b7          	lui	a5,0x20000
     390:	00078793          	mv	a5,a5
     394:	1087d783          	lhu	a5,264(a5) # 20000108 <_data_vma+0x108>
     398:	07c2                	slli	a5,a5,0x10
     39a:	83c1                	srli	a5,a5,0x10
     39c:	00178713          	addi	a4,a5,1
     3a0:	01071693          	slli	a3,a4,0x10
     3a4:	82c1                	srli	a3,a3,0x10
     3a6:	20000737          	lui	a4,0x20000
     3aa:	00070713          	mv	a4,a4
     3ae:	10d71423          	sh	a3,264(a4) # 20000108 <_data_vma+0x108>
     3b2:	873e                	mv	a4,a5
     3b4:	200007b7          	lui	a5,0x20000
     3b8:	00078793          	mv	a5,a5
     3bc:	97ba                	add	a5,a5,a4
     3be:	577d                	li	a4,-1
     3c0:	a798                	sb	a4,8(a5)
     3c2:	200007b7          	lui	a5,0x20000
     3c6:	00078793          	mv	a5,a5
     3ca:	1087d783          	lhu	a5,264(a5) # 20000108 <_data_vma+0x108>
     3ce:	07c2                	slli	a5,a5,0x10
     3d0:	83c1                	srli	a5,a5,0x10
     3d2:	00178713          	addi	a4,a5,1
     3d6:	01071693          	slli	a3,a4,0x10
     3da:	82c1                	srli	a3,a3,0x10
     3dc:	20000737          	lui	a4,0x20000
     3e0:	00070713          	mv	a4,a4
     3e4:	10d71423          	sh	a3,264(a4) # 20000108 <_data_vma+0x108>
     3e8:	873e                	mv	a4,a5
     3ea:	200007b7          	lui	a5,0x20000
     3ee:	00078793          	mv	a5,a5
     3f2:	97ba                	add	a5,a5,a4
     3f4:	00078423          	sb	zero,8(a5) # 20000008 <_data_vma+0x8>
     3f8:	8101c783          	lbu	a5,-2032(gp) # 200001b0 <_edata>
     3fc:	cf8d                	beqz	a5,436 <USART1_IRQHandler+0x116>
     3fe:	200007b7          	lui	a5,0x20000
     402:	00078793          	mv	a5,a5
     406:	1087d783          	lhu	a5,264(a5) # 20000108 <_data_vma+0x108>
     40a:	07c2                	slli	a5,a5,0x10
     40c:	83c1                	srli	a5,a5,0x10
     40e:	00178713          	addi	a4,a5,1
     412:	01071693          	slli	a3,a4,0x10
     416:	82c1                	srli	a3,a3,0x10
     418:	20000737          	lui	a4,0x20000
     41c:	00070713          	mv	a4,a4
     420:	10d71423          	sh	a3,264(a4) # 20000108 <_data_vma+0x108>
     424:	873e                	mv	a4,a5
     426:	200007b7          	lui	a5,0x20000
     42a:	00078793          	mv	a5,a5
     42e:	97ba                	add	a5,a5,a4
     430:	fef44703          	lbu	a4,-17(s0)
     434:	a798                	sb	a4,8(a5)
     436:	52500593          	li	a1,1317
     43a:	400147b7          	lui	a5,0x40014
     43e:	80078513          	addi	a0,a5,-2048 # 40013800 <_eusrstack+0x2000b800>
     442:	06d020ef          	jal	ra,2cae <USART_ClearITPendingBit>
     446:	0001                	nop
     448:	4472                	lw	s0,28(sp)
     44a:	6105                	addi	sp,sp,32
     44c:	30200073          	mret

00000450 <UART4_IRQHandler>:
     450:	1101                	addi	sp,sp,-32
     452:	ce22                	sw	s0,28(sp)
     454:	1000                	addi	s0,sp,32
     456:	52500593          	li	a1,1317
     45a:	400057b7          	lui	a5,0x40005
     45e:	c0078513          	addi	a0,a5,-1024 # 40004c00 <_eusrstack+0x1fffcc00>
     462:	752020ef          	jal	ra,2bb4 <USART_GetITStatus>
     466:	87aa                	mv	a5,a0
     468:	10078763          	beqz	a5,576 <UART4_IRQHandler+0x126>
     46c:	400057b7          	lui	a5,0x40005
     470:	c0078513          	addi	a0,a5,-1024 # 40004c00 <_eusrstack+0x1fffcc00>
     474:	6d8020ef          	jal	ra,2b4c <USART_ReceiveData>
     478:	87aa                	mv	a5,a0
     47a:	fef407a3          	sb	a5,-17(s0)
     47e:	fef44703          	lbu	a4,-17(s0)
     482:	0aa00793          	li	a5,170
     486:	00f71c63          	bne	a4,a5,49e <UART4_IRQHandler+0x4e>
     48a:	4705                	li	a4,1
     48c:	80e188a3          	sb	a4,-2031(gp) # 200001b1 <is_recieving.5363>
     490:	200007b7          	lui	a5,0x20000
     494:	00078793          	mv	a5,a5
     498:	10079423          	sh	zero,264(a5) # 20000108 <_data_vma+0x108>
     49c:	a071                	j	528 <UART4_IRQHandler+0xd8>
     49e:	fef44703          	lbu	a4,-17(s0)
     4a2:	0ff00793          	li	a5,255
     4a6:	08f71163          	bne	a4,a5,528 <UART4_IRQHandler+0xd8>
     4aa:	800188a3          	sb	zero,-2031(gp) # 200001b1 <is_recieving.5363>
     4ae:	200007b7          	lui	a5,0x20000
     4b2:	00078793          	mv	a5,a5
     4b6:	4705                	li	a4,1
     4b8:	10e78c23          	sb	a4,280(a5) # 20000118 <_data_vma+0x118>
     4bc:	200007b7          	lui	a5,0x20000
     4c0:	00078793          	mv	a5,a5
     4c4:	1087d783          	lhu	a5,264(a5) # 20000108 <_data_vma+0x108>
     4c8:	07c2                	slli	a5,a5,0x10
     4ca:	83c1                	srli	a5,a5,0x10
     4cc:	00178713          	addi	a4,a5,1
     4d0:	01071693          	slli	a3,a4,0x10
     4d4:	82c1                	srli	a3,a3,0x10
     4d6:	20000737          	lui	a4,0x20000
     4da:	00070713          	mv	a4,a4
     4de:	10d71423          	sh	a3,264(a4) # 20000108 <_data_vma+0x108>
     4e2:	873e                	mv	a4,a5
     4e4:	200007b7          	lui	a5,0x20000
     4e8:	00078793          	mv	a5,a5
     4ec:	97ba                	add	a5,a5,a4
     4ee:	577d                	li	a4,-1
     4f0:	a798                	sb	a4,8(a5)
     4f2:	200007b7          	lui	a5,0x20000
     4f6:	00078793          	mv	a5,a5
     4fa:	1087d783          	lhu	a5,264(a5) # 20000108 <_data_vma+0x108>
     4fe:	07c2                	slli	a5,a5,0x10
     500:	83c1                	srli	a5,a5,0x10
     502:	00178713          	addi	a4,a5,1
     506:	01071693          	slli	a3,a4,0x10
     50a:	82c1                	srli	a3,a3,0x10
     50c:	20000737          	lui	a4,0x20000
     510:	00070713          	mv	a4,a4
     514:	10d71423          	sh	a3,264(a4) # 20000108 <_data_vma+0x108>
     518:	873e                	mv	a4,a5
     51a:	200007b7          	lui	a5,0x20000
     51e:	00078793          	mv	a5,a5
     522:	97ba                	add	a5,a5,a4
     524:	00078423          	sb	zero,8(a5) # 20000008 <_data_vma+0x8>
     528:	8111c783          	lbu	a5,-2031(gp) # 200001b1 <is_recieving.5363>
     52c:	cf8d                	beqz	a5,566 <UART4_IRQHandler+0x116>
     52e:	200007b7          	lui	a5,0x20000
     532:	00078793          	mv	a5,a5
     536:	1087d783          	lhu	a5,264(a5) # 20000108 <_data_vma+0x108>
     53a:	07c2                	slli	a5,a5,0x10
     53c:	83c1                	srli	a5,a5,0x10
     53e:	00178713          	addi	a4,a5,1
     542:	01071693          	slli	a3,a4,0x10
     546:	82c1                	srli	a3,a3,0x10
     548:	20000737          	lui	a4,0x20000
     54c:	00070713          	mv	a4,a4
     550:	10d71423          	sh	a3,264(a4) # 20000108 <_data_vma+0x108>
     554:	873e                	mv	a4,a5
     556:	200007b7          	lui	a5,0x20000
     55a:	00078793          	mv	a5,a5
     55e:	97ba                	add	a5,a5,a4
     560:	fef44703          	lbu	a4,-17(s0)
     564:	a798                	sb	a4,8(a5)
     566:	52500593          	li	a1,1317
     56a:	400057b7          	lui	a5,0x40005
     56e:	c0078513          	addi	a0,a5,-1024 # 40004c00 <_eusrstack+0x1fffcc00>
     572:	73c020ef          	jal	ra,2cae <USART_ClearITPendingBit>
     576:	0001                	nop
     578:	4472                	lw	s0,28(sp)
     57a:	6105                	addi	sp,sp,32
     57c:	30200073          	mret

00000580 <SystemInit>:
     580:	1141                	addi	sp,sp,-16
     582:	c606                	sw	ra,12(sp)
     584:	c422                	sw	s0,8(sp)
     586:	0800                	addi	s0,sp,16
     588:	400217b7          	lui	a5,0x40021
     58c:	4398                	lw	a4,0(a5)
     58e:	400217b7          	lui	a5,0x40021
     592:	00176713          	ori	a4,a4,1
     596:	c398                	sw	a4,0(a5)
     598:	400217b7          	lui	a5,0x40021
     59c:	43d4                	lw	a3,4(a5)
     59e:	400217b7          	lui	a5,0x40021
     5a2:	f0ff0737          	lui	a4,0xf0ff0
     5a6:	8f75                	and	a4,a4,a3
     5a8:	c3d8                	sw	a4,4(a5)
     5aa:	400217b7          	lui	a5,0x40021
     5ae:	4394                	lw	a3,0(a5)
     5b0:	400217b7          	lui	a5,0x40021
     5b4:	fef70737          	lui	a4,0xfef70
     5b8:	177d                	addi	a4,a4,-1
     5ba:	8f75                	and	a4,a4,a3
     5bc:	c398                	sw	a4,0(a5)
     5be:	400217b7          	lui	a5,0x40021
     5c2:	4394                	lw	a3,0(a5)
     5c4:	400217b7          	lui	a5,0x40021
     5c8:	fffc0737          	lui	a4,0xfffc0
     5cc:	177d                	addi	a4,a4,-1
     5ce:	8f75                	and	a4,a4,a3
     5d0:	c398                	sw	a4,0(a5)
     5d2:	400217b7          	lui	a5,0x40021
     5d6:	43d4                	lw	a3,4(a5)
     5d8:	400217b7          	lui	a5,0x40021
     5dc:	ff010737          	lui	a4,0xff010
     5e0:	177d                	addi	a4,a4,-1
     5e2:	8f75                	and	a4,a4,a3
     5e4:	c3d8                	sw	a4,4(a5)
     5e6:	400217b7          	lui	a5,0x40021
     5ea:	4394                	lw	a3,0(a5)
     5ec:	400217b7          	lui	a5,0x40021
     5f0:	ec000737          	lui	a4,0xec000
     5f4:	177d                	addi	a4,a4,-1
     5f6:	8f75                	and	a4,a4,a3
     5f8:	c398                	sw	a4,0(a5)
     5fa:	400217b7          	lui	a5,0x40021
     5fe:	00ff0737          	lui	a4,0xff0
     602:	c798                	sw	a4,8(a5)
     604:	400217b7          	lui	a5,0x40021
     608:	0207a623          	sw	zero,44(a5) # 4002102c <_eusrstack+0x2001902c>
     60c:	24c1                	jal	8cc <SetSysClock>
     60e:	0001                	nop
     610:	40b2                	lw	ra,12(sp)
     612:	4422                	lw	s0,8(sp)
     614:	0141                	addi	sp,sp,16
     616:	8082                	ret

00000618 <SystemCoreClockUpdate>:
     618:	7179                	addi	sp,sp,-48
     61a:	d622                	sw	s0,44(sp)
     61c:	1800                	addi	s0,sp,48
     61e:	fe042223          	sw	zero,-28(s0)
     622:	fe042623          	sw	zero,-20(s0)
     626:	fe042023          	sw	zero,-32(s0)
     62a:	fe0405a3          	sb	zero,-21(s0)
     62e:	fc040fa3          	sb	zero,-33(s0)
     632:	400217b7          	lui	a5,0x40021
     636:	43dc                	lw	a5,4(a5)
     638:	8bb1                	andi	a5,a5,12
     63a:	fef42223          	sw	a5,-28(s0)
     63e:	fe442703          	lw	a4,-28(s0)
     642:	4791                	li	a5,4
     644:	02f70463          	beq	a4,a5,66c <SystemCoreClockUpdate+0x54>
     648:	fe442703          	lw	a4,-28(s0)
     64c:	47a1                	li	a5,8
     64e:	02f70863          	beq	a4,a5,67e <SystemCoreClockUpdate+0x66>
     652:	fe442783          	lw	a5,-28(s0)
     656:	22079163          	bnez	a5,878 <__stack_size+0x78>
     65a:	200007b7          	lui	a5,0x20000
     65e:	007a1737          	lui	a4,0x7a1
     662:	20070713          	addi	a4,a4,512 # 7a1200 <_data_lma+0x79ae54>
     666:	1ae7a023          	sw	a4,416(a5) # 200001a0 <SystemCoreClock>
     66a:	a40d                	j	88c <__stack_size+0x8c>
     66c:	200007b7          	lui	a5,0x20000
     670:	007a1737          	lui	a4,0x7a1
     674:	20070713          	addi	a4,a4,512 # 7a1200 <_data_lma+0x79ae54>
     678:	1ae7a023          	sw	a4,416(a5) # 200001a0 <SystemCoreClock>
     67c:	ac01                	j	88c <__stack_size+0x8c>
     67e:	400217b7          	lui	a5,0x40021
     682:	43d8                	lw	a4,4(a5)
     684:	003c07b7          	lui	a5,0x3c0
     688:	8ff9                	and	a5,a5,a4
     68a:	fef42623          	sw	a5,-20(s0)
     68e:	400217b7          	lui	a5,0x40021
     692:	43d8                	lw	a4,4(a5)
     694:	67c1                	lui	a5,0x10
     696:	8ff9                	and	a5,a5,a4
     698:	fef42023          	sw	a5,-32(s0)
     69c:	fec42783          	lw	a5,-20(s0)
     6a0:	83c9                	srli	a5,a5,0x12
     6a2:	0789                	addi	a5,a5,2
     6a4:	fef42623          	sw	a5,-20(s0)
     6a8:	fec42703          	lw	a4,-20(s0)
     6ac:	4789                	li	a5,2
     6ae:	00f71563          	bne	a4,a5,6b8 <SystemCoreClockUpdate+0xa0>
     6b2:	47c9                	li	a5,18
     6b4:	fef42623          	sw	a5,-20(s0)
     6b8:	fec42703          	lw	a4,-20(s0)
     6bc:	47bd                	li	a5,15
     6be:	00f71863          	bne	a4,a5,6ce <SystemCoreClockUpdate+0xb6>
     6c2:	47b5                	li	a5,13
     6c4:	fef42623          	sw	a5,-20(s0)
     6c8:	4785                	li	a5,1
     6ca:	fef405a3          	sb	a5,-21(s0)
     6ce:	fec42703          	lw	a4,-20(s0)
     6d2:	47c1                	li	a5,16
     6d4:	00f71563          	bne	a4,a5,6de <SystemCoreClockUpdate+0xc6>
     6d8:	47bd                	li	a5,15
     6da:	fef42623          	sw	a5,-20(s0)
     6de:	fec42703          	lw	a4,-20(s0)
     6e2:	47c5                	li	a5,17
     6e4:	00f71563          	bne	a4,a5,6ee <SystemCoreClockUpdate+0xd6>
     6e8:	47c1                	li	a5,16
     6ea:	fef42623          	sw	a5,-20(s0)
     6ee:	fe042783          	lw	a5,-32(s0)
     6f2:	e3b1                	bnez	a5,736 <SystemCoreClockUpdate+0x11e>
     6f4:	400247b7          	lui	a5,0x40024
     6f8:	80078793          	addi	a5,a5,-2048 # 40023800 <_eusrstack+0x2001b800>
     6fc:	439c                	lw	a5,0(a5)
     6fe:	8bc1                	andi	a5,a5,16
     700:	cf91                	beqz	a5,71c <SystemCoreClockUpdate+0x104>
     702:	fec42703          	lw	a4,-20(s0)
     706:	007a17b7          	lui	a5,0x7a1
     70a:	20078793          	addi	a5,a5,512 # 7a1200 <_data_lma+0x79ae54>
     70e:	02f70733          	mul	a4,a4,a5
     712:	200007b7          	lui	a5,0x20000
     716:	1ae7a023          	sw	a4,416(a5) # 200001a0 <SystemCoreClock>
     71a:	aa3d                	j	858 <__stack_size+0x58>
     71c:	fec42703          	lw	a4,-20(s0)
     720:	003d17b7          	lui	a5,0x3d1
     724:	90078793          	addi	a5,a5,-1792 # 3d0900 <_data_lma+0x3ca554>
     728:	02f70733          	mul	a4,a4,a5
     72c:	200007b7          	lui	a5,0x20000
     730:	1ae7a023          	sw	a4,416(a5) # 200001a0 <SystemCoreClock>
     734:	a215                	j	858 <__stack_size+0x58>
     736:	400217b7          	lui	a5,0x40021
     73a:	57d8                	lw	a4,44(a5)
     73c:	67c1                	lui	a5,0x10
     73e:	8ff9                	and	a5,a5,a4
     740:	c3ed                	beqz	a5,822 <__stack_size+0x22>
     742:	400217b7          	lui	a5,0x40021
     746:	57dc                	lw	a5,44(a5)
     748:	8391                	srli	a5,a5,0x4
     74a:	8bbd                	andi	a5,a5,15
     74c:	0785                	addi	a5,a5,1
     74e:	007a1737          	lui	a4,0x7a1
     752:	20070713          	addi	a4,a4,512 # 7a1200 <_data_lma+0x79ae54>
     756:	02f75733          	divu	a4,a4,a5
     75a:	200007b7          	lui	a5,0x20000
     75e:	1ae7a023          	sw	a4,416(a5) # 200001a0 <SystemCoreClock>
     762:	400217b7          	lui	a5,0x40021
     766:	57dc                	lw	a5,44(a5)
     768:	83a1                	srli	a5,a5,0x8
     76a:	0ff7f793          	andi	a5,a5,255
     76e:	8bbd                	andi	a5,a5,15
     770:	fcf40fa3          	sb	a5,-33(s0)
     774:	fdf44783          	lbu	a5,-33(s0)
     778:	ef99                	bnez	a5,796 <SystemCoreClockUpdate+0x17e>
     77a:	200007b7          	lui	a5,0x20000
     77e:	1a07a703          	lw	a4,416(a5) # 200001a0 <SystemCoreClock>
     782:	87ba                	mv	a5,a4
     784:	078a                	slli	a5,a5,0x2
     786:	97ba                	add	a5,a5,a4
     788:	0017d713          	srli	a4,a5,0x1
     78c:	200007b7          	lui	a5,0x20000
     790:	1ae7a023          	sw	a4,416(a5) # 200001a0 <SystemCoreClock>
     794:	a0bd                	j	802 <__stack_size+0x2>
     796:	fdf44703          	lbu	a4,-33(s0)
     79a:	4785                	li	a5,1
     79c:	02f71263          	bne	a4,a5,7c0 <SystemCoreClockUpdate+0x1a8>
     7a0:	200007b7          	lui	a5,0x20000
     7a4:	1a07a703          	lw	a4,416(a5) # 200001a0 <SystemCoreClock>
     7a8:	87ba                	mv	a5,a4
     7aa:	0786                	slli	a5,a5,0x1
     7ac:	97ba                	add	a5,a5,a4
     7ae:	078e                	slli	a5,a5,0x3
     7b0:	97ba                	add	a5,a5,a4
     7b2:	0017d713          	srli	a4,a5,0x1
     7b6:	200007b7          	lui	a5,0x20000
     7ba:	1ae7a023          	sw	a4,416(a5) # 200001a0 <SystemCoreClock>
     7be:	a091                	j	802 <__stack_size+0x2>
     7c0:	fdf44703          	lbu	a4,-33(s0)
     7c4:	47bd                	li	a5,15
     7c6:	02f71063          	bne	a4,a5,7e6 <SystemCoreClockUpdate+0x1ce>
     7ca:	200007b7          	lui	a5,0x20000
     7ce:	1a07a703          	lw	a4,416(a5) # 200001a0 <SystemCoreClock>
     7d2:	87ba                	mv	a5,a4
     7d4:	078a                	slli	a5,a5,0x2
     7d6:	97ba                	add	a5,a5,a4
     7d8:	078a                	slli	a5,a5,0x2
     7da:	873e                	mv	a4,a5
     7dc:	200007b7          	lui	a5,0x20000
     7e0:	1ae7a023          	sw	a4,416(a5) # 200001a0 <SystemCoreClock>
     7e4:	a839                	j	802 <__stack_size+0x2>
     7e6:	fdf44783          	lbu	a5,-33(s0)
     7ea:	0789                	addi	a5,a5,2
     7ec:	873e                	mv	a4,a5
     7ee:	200007b7          	lui	a5,0x20000
     7f2:	1a07a783          	lw	a5,416(a5) # 200001a0 <SystemCoreClock>
     7f6:	02f70733          	mul	a4,a4,a5
     7fa:	200007b7          	lui	a5,0x20000
     7fe:	1ae7a023          	sw	a4,416(a5) # 200001a0 <SystemCoreClock>
     802:	200007b7          	lui	a5,0x20000
     806:	1a07a703          	lw	a4,416(a5) # 200001a0 <SystemCoreClock>
     80a:	400217b7          	lui	a5,0x40021
     80e:	57dc                	lw	a5,44(a5)
     810:	8bbd                	andi	a5,a5,15
     812:	0785                	addi	a5,a5,1
     814:	02f75733          	divu	a4,a4,a5
     818:	200007b7          	lui	a5,0x20000
     81c:	1ae7a023          	sw	a4,416(a5) # 200001a0 <SystemCoreClock>
     820:	a005                	j	840 <__stack_size+0x40>
     822:	400217b7          	lui	a5,0x40021
     826:	57dc                	lw	a5,44(a5)
     828:	8bbd                	andi	a5,a5,15
     82a:	0785                	addi	a5,a5,1
     82c:	007a1737          	lui	a4,0x7a1
     830:	20070713          	addi	a4,a4,512 # 7a1200 <_data_lma+0x79ae54>
     834:	02f75733          	divu	a4,a4,a5
     838:	200007b7          	lui	a5,0x20000
     83c:	1ae7a023          	sw	a4,416(a5) # 200001a0 <SystemCoreClock>
     840:	200007b7          	lui	a5,0x20000
     844:	1a07a703          	lw	a4,416(a5) # 200001a0 <SystemCoreClock>
     848:	fec42783          	lw	a5,-20(s0)
     84c:	02f70733          	mul	a4,a4,a5
     850:	200007b7          	lui	a5,0x20000
     854:	1ae7a023          	sw	a4,416(a5) # 200001a0 <SystemCoreClock>
     858:	feb44703          	lbu	a4,-21(s0)
     85c:	4785                	li	a5,1
     85e:	02f71663          	bne	a4,a5,88a <__stack_size+0x8a>
     862:	200007b7          	lui	a5,0x20000
     866:	1a07a783          	lw	a5,416(a5) # 200001a0 <SystemCoreClock>
     86a:	0017d713          	srli	a4,a5,0x1
     86e:	200007b7          	lui	a5,0x20000
     872:	1ae7a023          	sw	a4,416(a5) # 200001a0 <SystemCoreClock>
     876:	a811                	j	88a <__stack_size+0x8a>
     878:	200007b7          	lui	a5,0x20000
     87c:	007a1737          	lui	a4,0x7a1
     880:	20070713          	addi	a4,a4,512 # 7a1200 <_data_lma+0x79ae54>
     884:	1ae7a023          	sw	a4,416(a5) # 200001a0 <SystemCoreClock>
     888:	a011                	j	88c <__stack_size+0x8c>
     88a:	0001                	nop
     88c:	400217b7          	lui	a5,0x40021
     890:	43dc                	lw	a5,4(a5)
     892:	8391                	srli	a5,a5,0x4
     894:	00f7f713          	andi	a4,a5,15
     898:	200007b7          	lui	a5,0x20000
     89c:	11c78793          	addi	a5,a5,284 # 2000011c <AHBPrescTable>
     8a0:	97ba                	add	a5,a5,a4
     8a2:	239c                	lbu	a5,0(a5)
     8a4:	0ff7f793          	andi	a5,a5,255
     8a8:	fef42223          	sw	a5,-28(s0)
     8ac:	200007b7          	lui	a5,0x20000
     8b0:	1a07a703          	lw	a4,416(a5) # 200001a0 <SystemCoreClock>
     8b4:	fe442783          	lw	a5,-28(s0)
     8b8:	00f75733          	srl	a4,a4,a5
     8bc:	200007b7          	lui	a5,0x20000
     8c0:	1ae7a023          	sw	a4,416(a5) # 200001a0 <SystemCoreClock>
     8c4:	0001                	nop
     8c6:	5432                	lw	s0,44(sp)
     8c8:	6145                	addi	sp,sp,48
     8ca:	8082                	ret

000008cc <SetSysClock>:
     8cc:	1141                	addi	sp,sp,-16
     8ce:	c606                	sw	ra,12(sp)
     8d0:	c422                	sw	s0,8(sp)
     8d2:	0800                	addi	s0,sp,16
     8d4:	2031                	jal	8e0 <SetSysClockTo96_HSE>
     8d6:	0001                	nop
     8d8:	40b2                	lw	ra,12(sp)
     8da:	4422                	lw	s0,8(sp)
     8dc:	0141                	addi	sp,sp,16
     8de:	8082                	ret

000008e0 <SetSysClockTo96_HSE>:
     8e0:	1101                	addi	sp,sp,-32
     8e2:	ce22                	sw	s0,28(sp)
     8e4:	1000                	addi	s0,sp,32
     8e6:	fe042623          	sw	zero,-20(s0)
     8ea:	fe042423          	sw	zero,-24(s0)
     8ee:	400217b7          	lui	a5,0x40021
     8f2:	4394                	lw	a3,0(a5)
     8f4:	400217b7          	lui	a5,0x40021
     8f8:	6741                	lui	a4,0x10
     8fa:	8f55                	or	a4,a4,a3
     8fc:	c398                	sw	a4,0(a5)
     8fe:	400217b7          	lui	a5,0x40021
     902:	4398                	lw	a4,0(a5)
     904:	000207b7          	lui	a5,0x20
     908:	8ff9                	and	a5,a5,a4
     90a:	fef42423          	sw	a5,-24(s0)
     90e:	fec42783          	lw	a5,-20(s0)
     912:	0785                	addi	a5,a5,1
     914:	fef42623          	sw	a5,-20(s0)
     918:	fe842783          	lw	a5,-24(s0)
     91c:	e791                	bnez	a5,928 <SetSysClockTo96_HSE+0x48>
     91e:	fec42703          	lw	a4,-20(s0)
     922:	6785                	lui	a5,0x1
     924:	fcf71de3          	bne	a4,a5,8fe <SetSysClockTo96_HSE+0x1e>
     928:	400217b7          	lui	a5,0x40021
     92c:	4398                	lw	a4,0(a5)
     92e:	000207b7          	lui	a5,0x20
     932:	8ff9                	and	a5,a5,a4
     934:	c789                	beqz	a5,93e <SetSysClockTo96_HSE+0x5e>
     936:	4785                	li	a5,1
     938:	fef42423          	sw	a5,-24(s0)
     93c:	a019                	j	942 <SetSysClockTo96_HSE+0x62>
     93e:	fe042423          	sw	zero,-24(s0)
     942:	fe842703          	lw	a4,-24(s0)
     946:	4785                	li	a5,1
     948:	0af71263          	bne	a4,a5,9ec <SetSysClockTo96_HSE+0x10c>
     94c:	40021737          	lui	a4,0x40021
     950:	400217b7          	lui	a5,0x40021
     954:	4358                	lw	a4,4(a4)
     956:	c3d8                	sw	a4,4(a5)
     958:	40021737          	lui	a4,0x40021
     95c:	400217b7          	lui	a5,0x40021
     960:	4358                	lw	a4,4(a4)
     962:	c3d8                	sw	a4,4(a5)
     964:	400217b7          	lui	a5,0x40021
     968:	43d8                	lw	a4,4(a5)
     96a:	400217b7          	lui	a5,0x40021
     96e:	40076713          	ori	a4,a4,1024
     972:	c3d8                	sw	a4,4(a5)
     974:	400217b7          	lui	a5,0x40021
     978:	43d4                	lw	a3,4(a5)
     97a:	400217b7          	lui	a5,0x40021
     97e:	ffc10737          	lui	a4,0xffc10
     982:	177d                	addi	a4,a4,-1
     984:	8f75                	and	a4,a4,a3
     986:	c3d8                	sw	a4,4(a5)
     988:	400217b7          	lui	a5,0x40021
     98c:	43d4                	lw	a3,4(a5)
     98e:	400217b7          	lui	a5,0x40021
     992:	00290737          	lui	a4,0x290
     996:	8f55                	or	a4,a4,a3
     998:	c3d8                	sw	a4,4(a5)
     99a:	400217b7          	lui	a5,0x40021
     99e:	4394                	lw	a3,0(a5)
     9a0:	400217b7          	lui	a5,0x40021
     9a4:	01000737          	lui	a4,0x1000
     9a8:	8f55                	or	a4,a4,a3
     9aa:	c398                	sw	a4,0(a5)
     9ac:	0001                	nop
     9ae:	400217b7          	lui	a5,0x40021
     9b2:	4398                	lw	a4,0(a5)
     9b4:	020007b7          	lui	a5,0x2000
     9b8:	8ff9                	and	a5,a5,a4
     9ba:	dbf5                	beqz	a5,9ae <SetSysClockTo96_HSE+0xce>
     9bc:	400217b7          	lui	a5,0x40021
     9c0:	43d8                	lw	a4,4(a5)
     9c2:	400217b7          	lui	a5,0x40021
     9c6:	9b71                	andi	a4,a4,-4
     9c8:	c3d8                	sw	a4,4(a5)
     9ca:	400217b7          	lui	a5,0x40021
     9ce:	43d8                	lw	a4,4(a5)
     9d0:	400217b7          	lui	a5,0x40021
     9d4:	00276713          	ori	a4,a4,2
     9d8:	c3d8                	sw	a4,4(a5)
     9da:	0001                	nop
     9dc:	400217b7          	lui	a5,0x40021
     9e0:	43dc                	lw	a5,4(a5)
     9e2:	00c7f713          	andi	a4,a5,12
     9e6:	47a1                	li	a5,8
     9e8:	fef71ae3          	bne	a4,a5,9dc <SetSysClockTo96_HSE+0xfc>
     9ec:	0001                	nop
     9ee:	4472                	lw	s0,28(sp)
     9f0:	6105                	addi	sp,sp,32
     9f2:	8082                	ret

000009f4 <ADC1_2_IRQHandler>:
     9f4:	a001                	j	9f4 <ADC1_2_IRQHandler>

000009f6 <handle_reset>:
     9f6:	20000197          	auipc	gp,0x20000
     9fa:	faa18193          	addi	gp,gp,-86 # 200009a0 <__global_pointer$>
     9fe:	20007117          	auipc	sp,0x20007
     a02:	60210113          	addi	sp,sp,1538 # 20008000 <_eusrstack>
     a06:	00006517          	auipc	a0,0x6
     a0a:	9a650513          	addi	a0,a0,-1626 # 63ac <_data_lma>
     a0e:	1ffff597          	auipc	a1,0x1ffff
     a12:	5f258593          	addi	a1,a1,1522 # 20000000 <_data_vma>
     a16:	81018613          	addi	a2,gp,-2032 # 200001b0 <_edata>
     a1a:	00c5fa63          	bgeu	a1,a2,a2e <handle_reset+0x38>
     a1e:	00052283          	lw	t0,0(a0)
     a22:	0055a023          	sw	t0,0(a1)
     a26:	0511                	addi	a0,a0,4
     a28:	0591                	addi	a1,a1,4
     a2a:	fec5eae3          	bltu	a1,a2,a1e <handle_reset+0x28>
     a2e:	81018513          	addi	a0,gp,-2032 # 200001b0 <_edata>
     a32:	83018593          	addi	a1,gp,-2000 # 200001d0 <_ebss>
     a36:	00b57763          	bgeu	a0,a1,a44 <handle_reset+0x4e>
     a3a:	00052023          	sw	zero,0(a0)
     a3e:	0511                	addi	a0,a0,4
     a40:	feb56de3          	bltu	a0,a1,a3a <handle_reset+0x44>
     a44:	42fd                	li	t0,31
     a46:	bc029073          	csrw	0xbc0,t0
     a4a:	42ad                	li	t0,11
     a4c:	80429073          	csrw	0x804,t0
     a50:	000062b7          	lui	t0,0x6
     a54:	08828293          	addi	t0,t0,136 # 6088 <memmove+0x1e>
     a58:	30029073          	csrw	mstatus,t0
     a5c:	fffff297          	auipc	t0,0xfffff
     a60:	5a828293          	addi	t0,t0,1448 # 4 <_einit>
     a64:	0032e293          	ori	t0,t0,3
     a68:	30529073          	csrw	mtvec,t0
     a6c:	b15ff0ef          	jal	ra,580 <SystemInit>
     a70:	00000297          	auipc	t0,0x0
     a74:	81628293          	addi	t0,t0,-2026 # 286 <main>
     a78:	34129073          	csrw	mepc,t0
     a7c:	30200073          	mret

00000a80 <ADC_DeInit>:
     a80:	1101                	addi	sp,sp,-32
     a82:	ce06                	sw	ra,28(sp)
     a84:	cc22                	sw	s0,24(sp)
     a86:	1000                	addi	s0,sp,32
     a88:	fea42623          	sw	a0,-20(s0)
     a8c:	fec42703          	lw	a4,-20(s0)
     a90:	400127b7          	lui	a5,0x40012
     a94:	40078793          	addi	a5,a5,1024 # 40012400 <_eusrstack+0x2000a400>
     a98:	00f71d63          	bne	a4,a5,ab2 <ADC_DeInit+0x32>
     a9c:	4585                	li	a1,1
     a9e:	20000513          	li	a0,512
     aa2:	2e8010ef          	jal	ra,1d8a <RCC_APB2PeriphResetCmd>
     aa6:	4581                	li	a1,0
     aa8:	20000513          	li	a0,512
     aac:	2de010ef          	jal	ra,1d8a <RCC_APB2PeriphResetCmd>
     ab0:	a01d                	j	ad6 <ADC_DeInit+0x56>
     ab2:	fec42703          	lw	a4,-20(s0)
     ab6:	400137b7          	lui	a5,0x40013
     aba:	80078793          	addi	a5,a5,-2048 # 40012800 <_eusrstack+0x2000a800>
     abe:	00f71c63          	bne	a4,a5,ad6 <ADC_DeInit+0x56>
     ac2:	4585                	li	a1,1
     ac4:	40000513          	li	a0,1024
     ac8:	2c2010ef          	jal	ra,1d8a <RCC_APB2PeriphResetCmd>
     acc:	4581                	li	a1,0
     ace:	40000513          	li	a0,1024
     ad2:	2b8010ef          	jal	ra,1d8a <RCC_APB2PeriphResetCmd>
     ad6:	0001                	nop
     ad8:	40f2                	lw	ra,28(sp)
     ada:	4462                	lw	s0,24(sp)
     adc:	6105                	addi	sp,sp,32
     ade:	8082                	ret

00000ae0 <ADC_Init>:
     ae0:	7179                	addi	sp,sp,-48
     ae2:	d622                	sw	s0,44(sp)
     ae4:	1800                	addi	s0,sp,48
     ae6:	fca42e23          	sw	a0,-36(s0)
     aea:	fcb42c23          	sw	a1,-40(s0)
     aee:	fe042623          	sw	zero,-20(s0)
     af2:	fe0405a3          	sb	zero,-21(s0)
     af6:	fdc42783          	lw	a5,-36(s0)
     afa:	43dc                	lw	a5,4(a5)
     afc:	fef42623          	sw	a5,-20(s0)
     b00:	fec42703          	lw	a4,-20(s0)
     b04:	e0f107b7          	lui	a5,0xe0f10
     b08:	eff78793          	addi	a5,a5,-257 # e0f0feff <_eusrstack+0xc0f07eff>
     b0c:	8ff9                	and	a5,a5,a4
     b0e:	fef42623          	sw	a5,-20(s0)
     b12:	fd842783          	lw	a5,-40(s0)
     b16:	4398                	lw	a4,0(a5)
     b18:	fd842783          	lw	a5,-40(s0)
     b1c:	4f9c                	lw	a5,24(a5)
     b1e:	8f5d                	or	a4,a4,a5
     b20:	fd842783          	lw	a5,-40(s0)
     b24:	4fdc                	lw	a5,28(a5)
     b26:	8f5d                	or	a4,a4,a5
     b28:	fd842783          	lw	a5,-40(s0)
     b2c:	43dc                	lw	a5,4(a5)
     b2e:	07a2                	slli	a5,a5,0x8
     b30:	8fd9                	or	a5,a5,a4
     b32:	fec42703          	lw	a4,-20(s0)
     b36:	8fd9                	or	a5,a5,a4
     b38:	fef42623          	sw	a5,-20(s0)
     b3c:	fdc42783          	lw	a5,-36(s0)
     b40:	fec42703          	lw	a4,-20(s0)
     b44:	c3d8                	sw	a4,4(a5)
     b46:	fdc42783          	lw	a5,-36(s0)
     b4a:	479c                	lw	a5,8(a5)
     b4c:	fef42623          	sw	a5,-20(s0)
     b50:	fec42703          	lw	a4,-20(s0)
     b54:	fff1f7b7          	lui	a5,0xfff1f
     b58:	7fd78793          	addi	a5,a5,2045 # fff1f7fd <_eusrstack+0xdff177fd>
     b5c:	8ff9                	and	a5,a5,a4
     b5e:	fef42623          	sw	a5,-20(s0)
     b62:	fd842783          	lw	a5,-40(s0)
     b66:	4b98                	lw	a4,16(a5)
     b68:	fd842783          	lw	a5,-40(s0)
     b6c:	47dc                	lw	a5,12(a5)
     b6e:	8f5d                	or	a4,a4,a5
     b70:	fd842783          	lw	a5,-40(s0)
     b74:	479c                	lw	a5,8(a5)
     b76:	0786                	slli	a5,a5,0x1
     b78:	8fd9                	or	a5,a5,a4
     b7a:	fec42703          	lw	a4,-20(s0)
     b7e:	8fd9                	or	a5,a5,a4
     b80:	fef42623          	sw	a5,-20(s0)
     b84:	fdc42783          	lw	a5,-36(s0)
     b88:	fec42703          	lw	a4,-20(s0)
     b8c:	c798                	sw	a4,8(a5)
     b8e:	fdc42783          	lw	a5,-36(s0)
     b92:	57dc                	lw	a5,44(a5)
     b94:	fef42623          	sw	a5,-20(s0)
     b98:	fec42703          	lw	a4,-20(s0)
     b9c:	ff1007b7          	lui	a5,0xff100
     ba0:	17fd                	addi	a5,a5,-1
     ba2:	8ff9                	and	a5,a5,a4
     ba4:	fef42623          	sw	a5,-20(s0)
     ba8:	fd842783          	lw	a5,-40(s0)
     bac:	2bdc                	lbu	a5,20(a5)
     bae:	17fd                	addi	a5,a5,-1
     bb0:	0ff7f713          	andi	a4,a5,255
     bb4:	feb44783          	lbu	a5,-21(s0)
     bb8:	8fd9                	or	a5,a5,a4
     bba:	fef405a3          	sb	a5,-21(s0)
     bbe:	feb44783          	lbu	a5,-21(s0)
     bc2:	07d2                	slli	a5,a5,0x14
     bc4:	fec42703          	lw	a4,-20(s0)
     bc8:	8fd9                	or	a5,a5,a4
     bca:	fef42623          	sw	a5,-20(s0)
     bce:	fdc42783          	lw	a5,-36(s0)
     bd2:	fec42703          	lw	a4,-20(s0)
     bd6:	d7d8                	sw	a4,44(a5)
     bd8:	0001                	nop
     bda:	5432                	lw	s0,44(sp)
     bdc:	6145                	addi	sp,sp,48
     bde:	8082                	ret

00000be0 <ADC_Cmd>:
     be0:	1101                	addi	sp,sp,-32
     be2:	ce22                	sw	s0,28(sp)
     be4:	1000                	addi	s0,sp,32
     be6:	fea42623          	sw	a0,-20(s0)
     bea:	feb42423          	sw	a1,-24(s0)
     bee:	fe842783          	lw	a5,-24(s0)
     bf2:	cb91                	beqz	a5,c06 <ADC_Cmd+0x26>
     bf4:	fec42783          	lw	a5,-20(s0)
     bf8:	479c                	lw	a5,8(a5)
     bfa:	0017e713          	ori	a4,a5,1
     bfe:	fec42783          	lw	a5,-20(s0)
     c02:	c798                	sw	a4,8(a5)
     c04:	a809                	j	c16 <ADC_Cmd+0x36>
     c06:	fec42783          	lw	a5,-20(s0)
     c0a:	479c                	lw	a5,8(a5)
     c0c:	ffe7f713          	andi	a4,a5,-2
     c10:	fec42783          	lw	a5,-20(s0)
     c14:	c798                	sw	a4,8(a5)
     c16:	0001                	nop
     c18:	4472                	lw	s0,28(sp)
     c1a:	6105                	addi	sp,sp,32
     c1c:	8082                	ret

00000c1e <ADC_DMACmd>:
     c1e:	1101                	addi	sp,sp,-32
     c20:	ce22                	sw	s0,28(sp)
     c22:	1000                	addi	s0,sp,32
     c24:	fea42623          	sw	a0,-20(s0)
     c28:	feb42423          	sw	a1,-24(s0)
     c2c:	fe842783          	lw	a5,-24(s0)
     c30:	cb91                	beqz	a5,c44 <ADC_DMACmd+0x26>
     c32:	fec42783          	lw	a5,-20(s0)
     c36:	479c                	lw	a5,8(a5)
     c38:	1007e713          	ori	a4,a5,256
     c3c:	fec42783          	lw	a5,-20(s0)
     c40:	c798                	sw	a4,8(a5)
     c42:	a809                	j	c54 <ADC_DMACmd+0x36>
     c44:	fec42783          	lw	a5,-20(s0)
     c48:	479c                	lw	a5,8(a5)
     c4a:	eff7f713          	andi	a4,a5,-257
     c4e:	fec42783          	lw	a5,-20(s0)
     c52:	c798                	sw	a4,8(a5)
     c54:	0001                	nop
     c56:	4472                	lw	s0,28(sp)
     c58:	6105                	addi	sp,sp,32
     c5a:	8082                	ret

00000c5c <ADC_ResetCalibration>:
     c5c:	1101                	addi	sp,sp,-32
     c5e:	ce22                	sw	s0,28(sp)
     c60:	1000                	addi	s0,sp,32
     c62:	fea42623          	sw	a0,-20(s0)
     c66:	fec42783          	lw	a5,-20(s0)
     c6a:	479c                	lw	a5,8(a5)
     c6c:	0087e713          	ori	a4,a5,8
     c70:	fec42783          	lw	a5,-20(s0)
     c74:	c798                	sw	a4,8(a5)
     c76:	0001                	nop
     c78:	4472                	lw	s0,28(sp)
     c7a:	6105                	addi	sp,sp,32
     c7c:	8082                	ret

00000c7e <ADC_GetResetCalibrationStatus>:
     c7e:	7179                	addi	sp,sp,-48
     c80:	d622                	sw	s0,44(sp)
     c82:	1800                	addi	s0,sp,48
     c84:	fca42e23          	sw	a0,-36(s0)
     c88:	fe042623          	sw	zero,-20(s0)
     c8c:	fdc42783          	lw	a5,-36(s0)
     c90:	479c                	lw	a5,8(a5)
     c92:	8ba1                	andi	a5,a5,8
     c94:	c789                	beqz	a5,c9e <ADC_GetResetCalibrationStatus+0x20>
     c96:	4785                	li	a5,1
     c98:	fef42623          	sw	a5,-20(s0)
     c9c:	a019                	j	ca2 <ADC_GetResetCalibrationStatus+0x24>
     c9e:	fe042623          	sw	zero,-20(s0)
     ca2:	fec42783          	lw	a5,-20(s0)
     ca6:	853e                	mv	a0,a5
     ca8:	5432                	lw	s0,44(sp)
     caa:	6145                	addi	sp,sp,48
     cac:	8082                	ret

00000cae <ADC_StartCalibration>:
     cae:	1101                	addi	sp,sp,-32
     cb0:	ce22                	sw	s0,28(sp)
     cb2:	1000                	addi	s0,sp,32
     cb4:	fea42623          	sw	a0,-20(s0)
     cb8:	fec42783          	lw	a5,-20(s0)
     cbc:	479c                	lw	a5,8(a5)
     cbe:	0047e713          	ori	a4,a5,4
     cc2:	fec42783          	lw	a5,-20(s0)
     cc6:	c798                	sw	a4,8(a5)
     cc8:	0001                	nop
     cca:	4472                	lw	s0,28(sp)
     ccc:	6105                	addi	sp,sp,32
     cce:	8082                	ret

00000cd0 <ADC_GetCalibrationStatus>:
     cd0:	7179                	addi	sp,sp,-48
     cd2:	d622                	sw	s0,44(sp)
     cd4:	1800                	addi	s0,sp,48
     cd6:	fca42e23          	sw	a0,-36(s0)
     cda:	fe042623          	sw	zero,-20(s0)
     cde:	fdc42783          	lw	a5,-36(s0)
     ce2:	479c                	lw	a5,8(a5)
     ce4:	8b91                	andi	a5,a5,4
     ce6:	c789                	beqz	a5,cf0 <ADC_GetCalibrationStatus+0x20>
     ce8:	4785                	li	a5,1
     cea:	fef42623          	sw	a5,-20(s0)
     cee:	a019                	j	cf4 <ADC_GetCalibrationStatus+0x24>
     cf0:	fe042623          	sw	zero,-20(s0)
     cf4:	fec42783          	lw	a5,-20(s0)
     cf8:	853e                	mv	a0,a5
     cfa:	5432                	lw	s0,44(sp)
     cfc:	6145                	addi	sp,sp,48
     cfe:	8082                	ret

00000d00 <ADC_SoftwareStartConvCmd>:
     d00:	1101                	addi	sp,sp,-32
     d02:	ce22                	sw	s0,28(sp)
     d04:	1000                	addi	s0,sp,32
     d06:	fea42623          	sw	a0,-20(s0)
     d0a:	feb42423          	sw	a1,-24(s0)
     d0e:	fe842783          	lw	a5,-24(s0)
     d12:	cb99                	beqz	a5,d28 <ADC_SoftwareStartConvCmd+0x28>
     d14:	fec42783          	lw	a5,-20(s0)
     d18:	4798                	lw	a4,8(a5)
     d1a:	005007b7          	lui	a5,0x500
     d1e:	8f5d                	or	a4,a4,a5
     d20:	fec42783          	lw	a5,-20(s0)
     d24:	c798                	sw	a4,8(a5)
     d26:	a819                	j	d3c <ADC_SoftwareStartConvCmd+0x3c>
     d28:	fec42783          	lw	a5,-20(s0)
     d2c:	4798                	lw	a4,8(a5)
     d2e:	ffb007b7          	lui	a5,0xffb00
     d32:	17fd                	addi	a5,a5,-1
     d34:	8f7d                	and	a4,a4,a5
     d36:	fec42783          	lw	a5,-20(s0)
     d3a:	c798                	sw	a4,8(a5)
     d3c:	0001                	nop
     d3e:	4472                	lw	s0,28(sp)
     d40:	6105                	addi	sp,sp,32
     d42:	8082                	ret

00000d44 <ADC_RegularChannelConfig>:
     d44:	7179                	addi	sp,sp,-48
     d46:	d622                	sw	s0,44(sp)
     d48:	1800                	addi	s0,sp,48
     d4a:	fca42e23          	sw	a0,-36(s0)
     d4e:	87ae                	mv	a5,a1
     d50:	8736                	mv	a4,a3
     d52:	fcf40da3          	sb	a5,-37(s0)
     d56:	87b2                	mv	a5,a2
     d58:	fcf40d23          	sb	a5,-38(s0)
     d5c:	87ba                	mv	a5,a4
     d5e:	fcf40ca3          	sb	a5,-39(s0)
     d62:	fe042623          	sw	zero,-20(s0)
     d66:	fe042423          	sw	zero,-24(s0)
     d6a:	fdb44703          	lbu	a4,-37(s0)
     d6e:	47a5                	li	a5,9
     d70:	06e7f663          	bgeu	a5,a4,ddc <ADC_RegularChannelConfig+0x98>
     d74:	fdc42783          	lw	a5,-36(s0)
     d78:	47dc                	lw	a5,12(a5)
     d7a:	fef42623          	sw	a5,-20(s0)
     d7e:	fdb44783          	lbu	a5,-37(s0)
     d82:	ff678713          	addi	a4,a5,-10 # ffaffff6 <_eusrstack+0xdfaf7ff6>
     d86:	87ba                	mv	a5,a4
     d88:	0786                	slli	a5,a5,0x1
     d8a:	97ba                	add	a5,a5,a4
     d8c:	471d                	li	a4,7
     d8e:	00f717b3          	sll	a5,a4,a5
     d92:	fef42423          	sw	a5,-24(s0)
     d96:	fe842783          	lw	a5,-24(s0)
     d9a:	fff7c793          	not	a5,a5
     d9e:	fec42703          	lw	a4,-20(s0)
     da2:	8ff9                	and	a5,a5,a4
     da4:	fef42623          	sw	a5,-20(s0)
     da8:	fd944683          	lbu	a3,-39(s0)
     dac:	fdb44783          	lbu	a5,-37(s0)
     db0:	ff678713          	addi	a4,a5,-10
     db4:	87ba                	mv	a5,a4
     db6:	0786                	slli	a5,a5,0x1
     db8:	97ba                	add	a5,a5,a4
     dba:	00f697b3          	sll	a5,a3,a5
     dbe:	fef42423          	sw	a5,-24(s0)
     dc2:	fec42703          	lw	a4,-20(s0)
     dc6:	fe842783          	lw	a5,-24(s0)
     dca:	8fd9                	or	a5,a5,a4
     dcc:	fef42623          	sw	a5,-20(s0)
     dd0:	fdc42783          	lw	a5,-36(s0)
     dd4:	fec42703          	lw	a4,-20(s0)
     dd8:	c7d8                	sw	a4,12(a5)
     dda:	a085                	j	e3a <ADC_RegularChannelConfig+0xf6>
     ddc:	fdc42783          	lw	a5,-36(s0)
     de0:	4b9c                	lw	a5,16(a5)
     de2:	fef42623          	sw	a5,-20(s0)
     de6:	fdb44703          	lbu	a4,-37(s0)
     dea:	87ba                	mv	a5,a4
     dec:	0786                	slli	a5,a5,0x1
     dee:	97ba                	add	a5,a5,a4
     df0:	471d                	li	a4,7
     df2:	00f717b3          	sll	a5,a4,a5
     df6:	fef42423          	sw	a5,-24(s0)
     dfa:	fe842783          	lw	a5,-24(s0)
     dfe:	fff7c793          	not	a5,a5
     e02:	fec42703          	lw	a4,-20(s0)
     e06:	8ff9                	and	a5,a5,a4
     e08:	fef42623          	sw	a5,-20(s0)
     e0c:	fd944683          	lbu	a3,-39(s0)
     e10:	fdb44703          	lbu	a4,-37(s0)
     e14:	87ba                	mv	a5,a4
     e16:	0786                	slli	a5,a5,0x1
     e18:	97ba                	add	a5,a5,a4
     e1a:	00f697b3          	sll	a5,a3,a5
     e1e:	fef42423          	sw	a5,-24(s0)
     e22:	fec42703          	lw	a4,-20(s0)
     e26:	fe842783          	lw	a5,-24(s0)
     e2a:	8fd9                	or	a5,a5,a4
     e2c:	fef42623          	sw	a5,-20(s0)
     e30:	fdc42783          	lw	a5,-36(s0)
     e34:	fec42703          	lw	a4,-20(s0)
     e38:	cb98                	sw	a4,16(a5)
     e3a:	fda44703          	lbu	a4,-38(s0)
     e3e:	4799                	li	a5,6
     e40:	06e7e663          	bltu	a5,a4,eac <ADC_RegularChannelConfig+0x168>
     e44:	fdc42783          	lw	a5,-36(s0)
     e48:	5bdc                	lw	a5,52(a5)
     e4a:	fef42623          	sw	a5,-20(s0)
     e4e:	fda44783          	lbu	a5,-38(s0)
     e52:	fff78713          	addi	a4,a5,-1
     e56:	87ba                	mv	a5,a4
     e58:	078a                	slli	a5,a5,0x2
     e5a:	97ba                	add	a5,a5,a4
     e5c:	477d                	li	a4,31
     e5e:	00f717b3          	sll	a5,a4,a5
     e62:	fef42423          	sw	a5,-24(s0)
     e66:	fe842783          	lw	a5,-24(s0)
     e6a:	fff7c793          	not	a5,a5
     e6e:	fec42703          	lw	a4,-20(s0)
     e72:	8ff9                	and	a5,a5,a4
     e74:	fef42623          	sw	a5,-20(s0)
     e78:	fdb44683          	lbu	a3,-37(s0)
     e7c:	fda44783          	lbu	a5,-38(s0)
     e80:	fff78713          	addi	a4,a5,-1
     e84:	87ba                	mv	a5,a4
     e86:	078a                	slli	a5,a5,0x2
     e88:	97ba                	add	a5,a5,a4
     e8a:	00f697b3          	sll	a5,a3,a5
     e8e:	fef42423          	sw	a5,-24(s0)
     e92:	fec42703          	lw	a4,-20(s0)
     e96:	fe842783          	lw	a5,-24(s0)
     e9a:	8fd9                	or	a5,a5,a4
     e9c:	fef42623          	sw	a5,-20(s0)
     ea0:	fdc42783          	lw	a5,-36(s0)
     ea4:	fec42703          	lw	a4,-20(s0)
     ea8:	dbd8                	sw	a4,52(a5)
     eaa:	a8e9                	j	f84 <ADC_RegularChannelConfig+0x240>
     eac:	fda44703          	lbu	a4,-38(s0)
     eb0:	47b1                	li	a5,12
     eb2:	06e7e663          	bltu	a5,a4,f1e <ADC_RegularChannelConfig+0x1da>
     eb6:	fdc42783          	lw	a5,-36(s0)
     eba:	5b9c                	lw	a5,48(a5)
     ebc:	fef42623          	sw	a5,-20(s0)
     ec0:	fda44783          	lbu	a5,-38(s0)
     ec4:	ff978713          	addi	a4,a5,-7
     ec8:	87ba                	mv	a5,a4
     eca:	078a                	slli	a5,a5,0x2
     ecc:	97ba                	add	a5,a5,a4
     ece:	477d                	li	a4,31
     ed0:	00f717b3          	sll	a5,a4,a5
     ed4:	fef42423          	sw	a5,-24(s0)
     ed8:	fe842783          	lw	a5,-24(s0)
     edc:	fff7c793          	not	a5,a5
     ee0:	fec42703          	lw	a4,-20(s0)
     ee4:	8ff9                	and	a5,a5,a4
     ee6:	fef42623          	sw	a5,-20(s0)
     eea:	fdb44683          	lbu	a3,-37(s0)
     eee:	fda44783          	lbu	a5,-38(s0)
     ef2:	ff978713          	addi	a4,a5,-7
     ef6:	87ba                	mv	a5,a4
     ef8:	078a                	slli	a5,a5,0x2
     efa:	97ba                	add	a5,a5,a4
     efc:	00f697b3          	sll	a5,a3,a5
     f00:	fef42423          	sw	a5,-24(s0)
     f04:	fec42703          	lw	a4,-20(s0)
     f08:	fe842783          	lw	a5,-24(s0)
     f0c:	8fd9                	or	a5,a5,a4
     f0e:	fef42623          	sw	a5,-20(s0)
     f12:	fdc42783          	lw	a5,-36(s0)
     f16:	fec42703          	lw	a4,-20(s0)
     f1a:	db98                	sw	a4,48(a5)
     f1c:	a0a5                	j	f84 <ADC_RegularChannelConfig+0x240>
     f1e:	fdc42783          	lw	a5,-36(s0)
     f22:	57dc                	lw	a5,44(a5)
     f24:	fef42623          	sw	a5,-20(s0)
     f28:	fda44783          	lbu	a5,-38(s0)
     f2c:	ff378713          	addi	a4,a5,-13
     f30:	87ba                	mv	a5,a4
     f32:	078a                	slli	a5,a5,0x2
     f34:	97ba                	add	a5,a5,a4
     f36:	477d                	li	a4,31
     f38:	00f717b3          	sll	a5,a4,a5
     f3c:	fef42423          	sw	a5,-24(s0)
     f40:	fe842783          	lw	a5,-24(s0)
     f44:	fff7c793          	not	a5,a5
     f48:	fec42703          	lw	a4,-20(s0)
     f4c:	8ff9                	and	a5,a5,a4
     f4e:	fef42623          	sw	a5,-20(s0)
     f52:	fdb44683          	lbu	a3,-37(s0)
     f56:	fda44783          	lbu	a5,-38(s0)
     f5a:	ff378713          	addi	a4,a5,-13
     f5e:	87ba                	mv	a5,a4
     f60:	078a                	slli	a5,a5,0x2
     f62:	97ba                	add	a5,a5,a4
     f64:	00f697b3          	sll	a5,a3,a5
     f68:	fef42423          	sw	a5,-24(s0)
     f6c:	fec42703          	lw	a4,-20(s0)
     f70:	fe842783          	lw	a5,-24(s0)
     f74:	8fd9                	or	a5,a5,a4
     f76:	fef42623          	sw	a5,-20(s0)
     f7a:	fdc42783          	lw	a5,-36(s0)
     f7e:	fec42703          	lw	a4,-20(s0)
     f82:	d7d8                	sw	a4,44(a5)
     f84:	0001                	nop
     f86:	5432                	lw	s0,44(sp)
     f88:	6145                	addi	sp,sp,48
     f8a:	8082                	ret

00000f8c <ADC_BufferCmd>:
     f8c:	1101                	addi	sp,sp,-32
     f8e:	ce22                	sw	s0,28(sp)
     f90:	1000                	addi	s0,sp,32
     f92:	fea42623          	sw	a0,-20(s0)
     f96:	feb42423          	sw	a1,-24(s0)
     f9a:	fe842783          	lw	a5,-24(s0)
     f9e:	cb99                	beqz	a5,fb4 <ADC_BufferCmd+0x28>
     fa0:	fec42783          	lw	a5,-20(s0)
     fa4:	43d8                	lw	a4,4(a5)
     fa6:	040007b7          	lui	a5,0x4000
     faa:	8f5d                	or	a4,a4,a5
     fac:	fec42783          	lw	a5,-20(s0)
     fb0:	c3d8                	sw	a4,4(a5)
     fb2:	a819                	j	fc8 <ADC_BufferCmd+0x3c>
     fb4:	fec42783          	lw	a5,-20(s0)
     fb8:	43d8                	lw	a4,4(a5)
     fba:	fc0007b7          	lui	a5,0xfc000
     fbe:	17fd                	addi	a5,a5,-1
     fc0:	8f7d                	and	a4,a4,a5
     fc2:	fec42783          	lw	a5,-20(s0)
     fc6:	c3d8                	sw	a4,4(a5)
     fc8:	0001                	nop
     fca:	4472                	lw	s0,28(sp)
     fcc:	6105                	addi	sp,sp,32
     fce:	8082                	ret

00000fd0 <DBGMCU_GetCHIPID>:
     fd0:	1141                	addi	sp,sp,-16
     fd2:	c622                	sw	s0,12(sp)
     fd4:	0800                	addi	s0,sp,16
     fd6:	1ffff7b7          	lui	a5,0x1ffff
     fda:	70478793          	addi	a5,a5,1796 # 1ffff704 <_data_lma+0x1fff9358>
     fde:	439c                	lw	a5,0(a5)
     fe0:	853e                	mv	a0,a5
     fe2:	4432                	lw	s0,12(sp)
     fe4:	0141                	addi	sp,sp,16
     fe6:	8082                	ret

00000fe8 <DMA_DeInit>:
     fe8:	1101                	addi	sp,sp,-32
     fea:	ce22                	sw	s0,28(sp)
     fec:	1000                	addi	s0,sp,32
     fee:	fea42623          	sw	a0,-20(s0)
     ff2:	fec42783          	lw	a5,-20(s0)
     ff6:	4398                	lw	a4,0(a5)
     ff8:	67c1                	lui	a5,0x10
     ffa:	17f9                	addi	a5,a5,-2
     ffc:	8f7d                	and	a4,a4,a5
     ffe:	fec42783          	lw	a5,-20(s0)
    1002:	c398                	sw	a4,0(a5)
    1004:	fec42783          	lw	a5,-20(s0)
    1008:	0007a023          	sw	zero,0(a5) # 10000 <_data_lma+0x9c54>
    100c:	fec42783          	lw	a5,-20(s0)
    1010:	0007a223          	sw	zero,4(a5)
    1014:	fec42783          	lw	a5,-20(s0)
    1018:	0007a423          	sw	zero,8(a5)
    101c:	fec42783          	lw	a5,-20(s0)
    1020:	0007a623          	sw	zero,12(a5)
    1024:	fec42703          	lw	a4,-20(s0)
    1028:	400207b7          	lui	a5,0x40020
    102c:	07a1                	addi	a5,a5,8
    102e:	00f71b63          	bne	a4,a5,1044 <DMA_DeInit+0x5c>
    1032:	400207b7          	lui	a5,0x40020
    1036:	43d8                	lw	a4,4(a5)
    1038:	400207b7          	lui	a5,0x40020
    103c:	00f76713          	ori	a4,a4,15
    1040:	c3d8                	sw	a4,4(a5)
    1042:	ac45                	j	12f2 <DMA_DeInit+0x30a>
    1044:	fec42703          	lw	a4,-20(s0)
    1048:	400207b7          	lui	a5,0x40020
    104c:	07f1                	addi	a5,a5,28
    104e:	00f71b63          	bne	a4,a5,1064 <DMA_DeInit+0x7c>
    1052:	400207b7          	lui	a5,0x40020
    1056:	43d8                	lw	a4,4(a5)
    1058:	400207b7          	lui	a5,0x40020
    105c:	0f076713          	ori	a4,a4,240
    1060:	c3d8                	sw	a4,4(a5)
    1062:	ac41                	j	12f2 <DMA_DeInit+0x30a>
    1064:	fec42703          	lw	a4,-20(s0)
    1068:	400207b7          	lui	a5,0x40020
    106c:	03078793          	addi	a5,a5,48 # 40020030 <_eusrstack+0x20018030>
    1070:	00f71d63          	bne	a4,a5,108a <DMA_DeInit+0xa2>
    1074:	400207b7          	lui	a5,0x40020
    1078:	43d4                	lw	a3,4(a5)
    107a:	400207b7          	lui	a5,0x40020
    107e:	6705                	lui	a4,0x1
    1080:	f0070713          	addi	a4,a4,-256 # f00 <ADC_RegularChannelConfig+0x1bc>
    1084:	8f55                	or	a4,a4,a3
    1086:	c3d8                	sw	a4,4(a5)
    1088:	a4ad                	j	12f2 <DMA_DeInit+0x30a>
    108a:	fec42703          	lw	a4,-20(s0)
    108e:	400207b7          	lui	a5,0x40020
    1092:	04478793          	addi	a5,a5,68 # 40020044 <_eusrstack+0x20018044>
    1096:	00f71b63          	bne	a4,a5,10ac <DMA_DeInit+0xc4>
    109a:	400207b7          	lui	a5,0x40020
    109e:	43d4                	lw	a3,4(a5)
    10a0:	400207b7          	lui	a5,0x40020
    10a4:	673d                	lui	a4,0xf
    10a6:	8f55                	or	a4,a4,a3
    10a8:	c3d8                	sw	a4,4(a5)
    10aa:	a4a1                	j	12f2 <DMA_DeInit+0x30a>
    10ac:	fec42703          	lw	a4,-20(s0)
    10b0:	400207b7          	lui	a5,0x40020
    10b4:	05878793          	addi	a5,a5,88 # 40020058 <_eusrstack+0x20018058>
    10b8:	00f71c63          	bne	a4,a5,10d0 <DMA_DeInit+0xe8>
    10bc:	400207b7          	lui	a5,0x40020
    10c0:	43d4                	lw	a3,4(a5)
    10c2:	400207b7          	lui	a5,0x40020
    10c6:	000f0737          	lui	a4,0xf0
    10ca:	8f55                	or	a4,a4,a3
    10cc:	c3d8                	sw	a4,4(a5)
    10ce:	a415                	j	12f2 <DMA_DeInit+0x30a>
    10d0:	fec42703          	lw	a4,-20(s0)
    10d4:	400207b7          	lui	a5,0x40020
    10d8:	06c78793          	addi	a5,a5,108 # 4002006c <_eusrstack+0x2001806c>
    10dc:	00f71c63          	bne	a4,a5,10f4 <DMA_DeInit+0x10c>
    10e0:	400207b7          	lui	a5,0x40020
    10e4:	43d4                	lw	a3,4(a5)
    10e6:	400207b7          	lui	a5,0x40020
    10ea:	00f00737          	lui	a4,0xf00
    10ee:	8f55                	or	a4,a4,a3
    10f0:	c3d8                	sw	a4,4(a5)
    10f2:	a401                	j	12f2 <DMA_DeInit+0x30a>
    10f4:	fec42703          	lw	a4,-20(s0)
    10f8:	400207b7          	lui	a5,0x40020
    10fc:	08078793          	addi	a5,a5,128 # 40020080 <_eusrstack+0x20018080>
    1100:	00f71c63          	bne	a4,a5,1118 <DMA_DeInit+0x130>
    1104:	400207b7          	lui	a5,0x40020
    1108:	43d4                	lw	a3,4(a5)
    110a:	400207b7          	lui	a5,0x40020
    110e:	0f000737          	lui	a4,0xf000
    1112:	8f55                	or	a4,a4,a3
    1114:	c3d8                	sw	a4,4(a5)
    1116:	aaf1                	j	12f2 <DMA_DeInit+0x30a>
    1118:	fec42703          	lw	a4,-20(s0)
    111c:	400207b7          	lui	a5,0x40020
    1120:	40878793          	addi	a5,a5,1032 # 40020408 <_eusrstack+0x20018408>
    1124:	00f71f63          	bne	a4,a5,1142 <DMA_DeInit+0x15a>
    1128:	400207b7          	lui	a5,0x40020
    112c:	40078793          	addi	a5,a5,1024 # 40020400 <_eusrstack+0x20018400>
    1130:	43d8                	lw	a4,4(a5)
    1132:	400207b7          	lui	a5,0x40020
    1136:	40078793          	addi	a5,a5,1024 # 40020400 <_eusrstack+0x20018400>
    113a:	00f76713          	ori	a4,a4,15
    113e:	c3d8                	sw	a4,4(a5)
    1140:	aa4d                	j	12f2 <DMA_DeInit+0x30a>
    1142:	fec42703          	lw	a4,-20(s0)
    1146:	400207b7          	lui	a5,0x40020
    114a:	41c78793          	addi	a5,a5,1052 # 4002041c <_eusrstack+0x2001841c>
    114e:	00f71f63          	bne	a4,a5,116c <DMA_DeInit+0x184>
    1152:	400207b7          	lui	a5,0x40020
    1156:	40078793          	addi	a5,a5,1024 # 40020400 <_eusrstack+0x20018400>
    115a:	43d8                	lw	a4,4(a5)
    115c:	400207b7          	lui	a5,0x40020
    1160:	40078793          	addi	a5,a5,1024 # 40020400 <_eusrstack+0x20018400>
    1164:	0f076713          	ori	a4,a4,240
    1168:	c3d8                	sw	a4,4(a5)
    116a:	a261                	j	12f2 <DMA_DeInit+0x30a>
    116c:	fec42703          	lw	a4,-20(s0)
    1170:	400207b7          	lui	a5,0x40020
    1174:	43078793          	addi	a5,a5,1072 # 40020430 <_eusrstack+0x20018430>
    1178:	02f71163          	bne	a4,a5,119a <DMA_DeInit+0x1b2>
    117c:	400207b7          	lui	a5,0x40020
    1180:	40078793          	addi	a5,a5,1024 # 40020400 <_eusrstack+0x20018400>
    1184:	43d4                	lw	a3,4(a5)
    1186:	400207b7          	lui	a5,0x40020
    118a:	40078793          	addi	a5,a5,1024 # 40020400 <_eusrstack+0x20018400>
    118e:	6705                	lui	a4,0x1
    1190:	f0070713          	addi	a4,a4,-256 # f00 <ADC_RegularChannelConfig+0x1bc>
    1194:	8f55                	or	a4,a4,a3
    1196:	c3d8                	sw	a4,4(a5)
    1198:	aaa9                	j	12f2 <DMA_DeInit+0x30a>
    119a:	fec42703          	lw	a4,-20(s0)
    119e:	400207b7          	lui	a5,0x40020
    11a2:	44478793          	addi	a5,a5,1092 # 40020444 <_eusrstack+0x20018444>
    11a6:	00f71f63          	bne	a4,a5,11c4 <DMA_DeInit+0x1dc>
    11aa:	400207b7          	lui	a5,0x40020
    11ae:	40078793          	addi	a5,a5,1024 # 40020400 <_eusrstack+0x20018400>
    11b2:	43d4                	lw	a3,4(a5)
    11b4:	400207b7          	lui	a5,0x40020
    11b8:	40078793          	addi	a5,a5,1024 # 40020400 <_eusrstack+0x20018400>
    11bc:	673d                	lui	a4,0xf
    11be:	8f55                	or	a4,a4,a3
    11c0:	c3d8                	sw	a4,4(a5)
    11c2:	aa05                	j	12f2 <DMA_DeInit+0x30a>
    11c4:	fec42703          	lw	a4,-20(s0)
    11c8:	400207b7          	lui	a5,0x40020
    11cc:	45878793          	addi	a5,a5,1112 # 40020458 <_eusrstack+0x20018458>
    11d0:	02f71063          	bne	a4,a5,11f0 <DMA_DeInit+0x208>
    11d4:	400207b7          	lui	a5,0x40020
    11d8:	40078793          	addi	a5,a5,1024 # 40020400 <_eusrstack+0x20018400>
    11dc:	43d4                	lw	a3,4(a5)
    11de:	400207b7          	lui	a5,0x40020
    11e2:	40078793          	addi	a5,a5,1024 # 40020400 <_eusrstack+0x20018400>
    11e6:	000f0737          	lui	a4,0xf0
    11ea:	8f55                	or	a4,a4,a3
    11ec:	c3d8                	sw	a4,4(a5)
    11ee:	a211                	j	12f2 <DMA_DeInit+0x30a>
    11f0:	fec42703          	lw	a4,-20(s0)
    11f4:	400207b7          	lui	a5,0x40020
    11f8:	46c78793          	addi	a5,a5,1132 # 4002046c <_eusrstack+0x2001846c>
    11fc:	02f71063          	bne	a4,a5,121c <DMA_DeInit+0x234>
    1200:	400207b7          	lui	a5,0x40020
    1204:	40078793          	addi	a5,a5,1024 # 40020400 <_eusrstack+0x20018400>
    1208:	43d4                	lw	a3,4(a5)
    120a:	400207b7          	lui	a5,0x40020
    120e:	40078793          	addi	a5,a5,1024 # 40020400 <_eusrstack+0x20018400>
    1212:	00f00737          	lui	a4,0xf00
    1216:	8f55                	or	a4,a4,a3
    1218:	c3d8                	sw	a4,4(a5)
    121a:	a8e1                	j	12f2 <DMA_DeInit+0x30a>
    121c:	fec42703          	lw	a4,-20(s0)
    1220:	400207b7          	lui	a5,0x40020
    1224:	48078793          	addi	a5,a5,1152 # 40020480 <_eusrstack+0x20018480>
    1228:	02f71063          	bne	a4,a5,1248 <DMA_DeInit+0x260>
    122c:	400207b7          	lui	a5,0x40020
    1230:	40078793          	addi	a5,a5,1024 # 40020400 <_eusrstack+0x20018400>
    1234:	43d4                	lw	a3,4(a5)
    1236:	400207b7          	lui	a5,0x40020
    123a:	40078793          	addi	a5,a5,1024 # 40020400 <_eusrstack+0x20018400>
    123e:	0f000737          	lui	a4,0xf000
    1242:	8f55                	or	a4,a4,a3
    1244:	c3d8                	sw	a4,4(a5)
    1246:	a075                	j	12f2 <DMA_DeInit+0x30a>
    1248:	fec42703          	lw	a4,-20(s0)
    124c:	400207b7          	lui	a5,0x40020
    1250:	49078793          	addi	a5,a5,1168 # 40020490 <_eusrstack+0x20018490>
    1254:	00f71f63          	bne	a4,a5,1272 <DMA_DeInit+0x28a>
    1258:	400207b7          	lui	a5,0x40020
    125c:	4d078793          	addi	a5,a5,1232 # 400204d0 <_eusrstack+0x200184d0>
    1260:	43d8                	lw	a4,4(a5)
    1262:	400207b7          	lui	a5,0x40020
    1266:	4d078793          	addi	a5,a5,1232 # 400204d0 <_eusrstack+0x200184d0>
    126a:	00f76713          	ori	a4,a4,15
    126e:	c3d8                	sw	a4,4(a5)
    1270:	a049                	j	12f2 <DMA_DeInit+0x30a>
    1272:	fec42703          	lw	a4,-20(s0)
    1276:	400207b7          	lui	a5,0x40020
    127a:	4a078793          	addi	a5,a5,1184 # 400204a0 <_eusrstack+0x200184a0>
    127e:	00f71f63          	bne	a4,a5,129c <DMA_DeInit+0x2b4>
    1282:	400207b7          	lui	a5,0x40020
    1286:	4d078793          	addi	a5,a5,1232 # 400204d0 <_eusrstack+0x200184d0>
    128a:	43d8                	lw	a4,4(a5)
    128c:	400207b7          	lui	a5,0x40020
    1290:	4d078793          	addi	a5,a5,1232 # 400204d0 <_eusrstack+0x200184d0>
    1294:	0f076713          	ori	a4,a4,240
    1298:	c3d8                	sw	a4,4(a5)
    129a:	a8a1                	j	12f2 <DMA_DeInit+0x30a>
    129c:	fec42703          	lw	a4,-20(s0)
    12a0:	400207b7          	lui	a5,0x40020
    12a4:	4b078793          	addi	a5,a5,1200 # 400204b0 <_eusrstack+0x200184b0>
    12a8:	02f71163          	bne	a4,a5,12ca <DMA_DeInit+0x2e2>
    12ac:	400207b7          	lui	a5,0x40020
    12b0:	4d078793          	addi	a5,a5,1232 # 400204d0 <_eusrstack+0x200184d0>
    12b4:	43d4                	lw	a3,4(a5)
    12b6:	400207b7          	lui	a5,0x40020
    12ba:	4d078793          	addi	a5,a5,1232 # 400204d0 <_eusrstack+0x200184d0>
    12be:	6705                	lui	a4,0x1
    12c0:	f0070713          	addi	a4,a4,-256 # f00 <ADC_RegularChannelConfig+0x1bc>
    12c4:	8f55                	or	a4,a4,a3
    12c6:	c3d8                	sw	a4,4(a5)
    12c8:	a02d                	j	12f2 <DMA_DeInit+0x30a>
    12ca:	fec42703          	lw	a4,-20(s0)
    12ce:	400207b7          	lui	a5,0x40020
    12d2:	4c078793          	addi	a5,a5,1216 # 400204c0 <_eusrstack+0x200184c0>
    12d6:	00f71e63          	bne	a4,a5,12f2 <DMA_DeInit+0x30a>
    12da:	400207b7          	lui	a5,0x40020
    12de:	4d078793          	addi	a5,a5,1232 # 400204d0 <_eusrstack+0x200184d0>
    12e2:	43d4                	lw	a3,4(a5)
    12e4:	400207b7          	lui	a5,0x40020
    12e8:	4d078793          	addi	a5,a5,1232 # 400204d0 <_eusrstack+0x200184d0>
    12ec:	673d                	lui	a4,0xf
    12ee:	8f55                	or	a4,a4,a3
    12f0:	c3d8                	sw	a4,4(a5)
    12f2:	0001                	nop
    12f4:	4472                	lw	s0,28(sp)
    12f6:	6105                	addi	sp,sp,32
    12f8:	8082                	ret

000012fa <DMA_Init>:
    12fa:	7179                	addi	sp,sp,-48
    12fc:	d622                	sw	s0,44(sp)
    12fe:	1800                	addi	s0,sp,48
    1300:	fca42e23          	sw	a0,-36(s0)
    1304:	fcb42c23          	sw	a1,-40(s0)
    1308:	fe042623          	sw	zero,-20(s0)
    130c:	fdc42783          	lw	a5,-36(s0)
    1310:	439c                	lw	a5,0(a5)
    1312:	fef42623          	sw	a5,-20(s0)
    1316:	fec42703          	lw	a4,-20(s0)
    131a:	77e1                	lui	a5,0xffff8
    131c:	07bd                	addi	a5,a5,15
    131e:	8ff9                	and	a5,a5,a4
    1320:	fef42623          	sw	a5,-20(s0)
    1324:	fd842783          	lw	a5,-40(s0)
    1328:	4798                	lw	a4,8(a5)
    132a:	fd842783          	lw	a5,-40(s0)
    132e:	539c                	lw	a5,32(a5)
    1330:	8f5d                	or	a4,a4,a5
    1332:	fd842783          	lw	a5,-40(s0)
    1336:	4b9c                	lw	a5,16(a5)
    1338:	8f5d                	or	a4,a4,a5
    133a:	fd842783          	lw	a5,-40(s0)
    133e:	4bdc                	lw	a5,20(a5)
    1340:	8f5d                	or	a4,a4,a5
    1342:	fd842783          	lw	a5,-40(s0)
    1346:	4f9c                	lw	a5,24(a5)
    1348:	8f5d                	or	a4,a4,a5
    134a:	fd842783          	lw	a5,-40(s0)
    134e:	4fdc                	lw	a5,28(a5)
    1350:	8f5d                	or	a4,a4,a5
    1352:	fd842783          	lw	a5,-40(s0)
    1356:	53dc                	lw	a5,36(a5)
    1358:	8f5d                	or	a4,a4,a5
    135a:	fd842783          	lw	a5,-40(s0)
    135e:	579c                	lw	a5,40(a5)
    1360:	8fd9                	or	a5,a5,a4
    1362:	fec42703          	lw	a4,-20(s0)
    1366:	8fd9                	or	a5,a5,a4
    1368:	fef42623          	sw	a5,-20(s0)
    136c:	fdc42783          	lw	a5,-36(s0)
    1370:	fec42703          	lw	a4,-20(s0)
    1374:	c398                	sw	a4,0(a5)
    1376:	fd842783          	lw	a5,-40(s0)
    137a:	47d8                	lw	a4,12(a5)
    137c:	fdc42783          	lw	a5,-36(s0)
    1380:	c3d8                	sw	a4,4(a5)
    1382:	fd842783          	lw	a5,-40(s0)
    1386:	4398                	lw	a4,0(a5)
    1388:	fdc42783          	lw	a5,-36(s0)
    138c:	c798                	sw	a4,8(a5)
    138e:	fd842783          	lw	a5,-40(s0)
    1392:	43d8                	lw	a4,4(a5)
    1394:	fdc42783          	lw	a5,-36(s0)
    1398:	c7d8                	sw	a4,12(a5)
    139a:	0001                	nop
    139c:	5432                	lw	s0,44(sp)
    139e:	6145                	addi	sp,sp,48
    13a0:	8082                	ret

000013a2 <DMA_Cmd>:
    13a2:	1101                	addi	sp,sp,-32
    13a4:	ce22                	sw	s0,28(sp)
    13a6:	1000                	addi	s0,sp,32
    13a8:	fea42623          	sw	a0,-20(s0)
    13ac:	feb42423          	sw	a1,-24(s0)
    13b0:	fe842783          	lw	a5,-24(s0)
    13b4:	cb91                	beqz	a5,13c8 <DMA_Cmd+0x26>
    13b6:	fec42783          	lw	a5,-20(s0)
    13ba:	439c                	lw	a5,0(a5)
    13bc:	0017e713          	ori	a4,a5,1
    13c0:	fec42783          	lw	a5,-20(s0)
    13c4:	c398                	sw	a4,0(a5)
    13c6:	a811                	j	13da <DMA_Cmd+0x38>
    13c8:	fec42783          	lw	a5,-20(s0)
    13cc:	4398                	lw	a4,0(a5)
    13ce:	67c1                	lui	a5,0x10
    13d0:	17f9                	addi	a5,a5,-2
    13d2:	8f7d                	and	a4,a4,a5
    13d4:	fec42783          	lw	a5,-20(s0)
    13d8:	c398                	sw	a4,0(a5)
    13da:	0001                	nop
    13dc:	4472                	lw	s0,28(sp)
    13de:	6105                	addi	sp,sp,32
    13e0:	8082                	ret

000013e2 <GPIO_Init>:
    13e2:	7139                	addi	sp,sp,-64
    13e4:	de22                	sw	s0,60(sp)
    13e6:	0080                	addi	s0,sp,64
    13e8:	fca42623          	sw	a0,-52(s0)
    13ec:	fcb42423          	sw	a1,-56(s0)
    13f0:	fe042623          	sw	zero,-20(s0)
    13f4:	fe042023          	sw	zero,-32(s0)
    13f8:	fe042423          	sw	zero,-24(s0)
    13fc:	fc042e23          	sw	zero,-36(s0)
    1400:	fe042223          	sw	zero,-28(s0)
    1404:	fc042c23          	sw	zero,-40(s0)
    1408:	fc842783          	lw	a5,-56(s0)
    140c:	479c                	lw	a5,8(a5)
    140e:	8bbd                	andi	a5,a5,15
    1410:	fef42623          	sw	a5,-20(s0)
    1414:	fc842783          	lw	a5,-56(s0)
    1418:	479c                	lw	a5,8(a5)
    141a:	8bc1                	andi	a5,a5,16
    141c:	cb89                	beqz	a5,142e <GPIO_Init+0x4c>
    141e:	fc842783          	lw	a5,-56(s0)
    1422:	43dc                	lw	a5,4(a5)
    1424:	fec42703          	lw	a4,-20(s0)
    1428:	8fd9                	or	a5,a5,a4
    142a:	fef42623          	sw	a5,-20(s0)
    142e:	fc842783          	lw	a5,-56(s0)
    1432:	239e                	lhu	a5,0(a5)
    1434:	0ff7f793          	andi	a5,a5,255
    1438:	cfe9                	beqz	a5,1512 <GPIO_Init+0x130>
    143a:	fcc42783          	lw	a5,-52(s0)
    143e:	439c                	lw	a5,0(a5)
    1440:	fef42223          	sw	a5,-28(s0)
    1444:	fe042423          	sw	zero,-24(s0)
    1448:	a85d                	j	14fe <GPIO_Init+0x11c>
    144a:	fe842783          	lw	a5,-24(s0)
    144e:	4705                	li	a4,1
    1450:	00f717b3          	sll	a5,a4,a5
    1454:	fcf42e23          	sw	a5,-36(s0)
    1458:	fc842783          	lw	a5,-56(s0)
    145c:	239e                	lhu	a5,0(a5)
    145e:	873e                	mv	a4,a5
    1460:	fdc42783          	lw	a5,-36(s0)
    1464:	8ff9                	and	a5,a5,a4
    1466:	fef42023          	sw	a5,-32(s0)
    146a:	fe042703          	lw	a4,-32(s0)
    146e:	fdc42783          	lw	a5,-36(s0)
    1472:	08f71163          	bne	a4,a5,14f4 <GPIO_Init+0x112>
    1476:	fe842783          	lw	a5,-24(s0)
    147a:	078a                	slli	a5,a5,0x2
    147c:	fcf42e23          	sw	a5,-36(s0)
    1480:	fdc42783          	lw	a5,-36(s0)
    1484:	473d                	li	a4,15
    1486:	00f717b3          	sll	a5,a4,a5
    148a:	fcf42c23          	sw	a5,-40(s0)
    148e:	fd842783          	lw	a5,-40(s0)
    1492:	fff7c793          	not	a5,a5
    1496:	fe442703          	lw	a4,-28(s0)
    149a:	8ff9                	and	a5,a5,a4
    149c:	fef42223          	sw	a5,-28(s0)
    14a0:	fdc42783          	lw	a5,-36(s0)
    14a4:	fec42703          	lw	a4,-20(s0)
    14a8:	00f717b3          	sll	a5,a4,a5
    14ac:	fe442703          	lw	a4,-28(s0)
    14b0:	8fd9                	or	a5,a5,a4
    14b2:	fef42223          	sw	a5,-28(s0)
    14b6:	fc842783          	lw	a5,-56(s0)
    14ba:	4798                	lw	a4,8(a5)
    14bc:	02800793          	li	a5,40
    14c0:	00f71b63          	bne	a4,a5,14d6 <GPIO_Init+0xf4>
    14c4:	fe842783          	lw	a5,-24(s0)
    14c8:	4705                	li	a4,1
    14ca:	00f71733          	sll	a4,a4,a5
    14ce:	fcc42783          	lw	a5,-52(s0)
    14d2:	cbd8                	sw	a4,20(a5)
    14d4:	a005                	j	14f4 <GPIO_Init+0x112>
    14d6:	fc842783          	lw	a5,-56(s0)
    14da:	4798                	lw	a4,8(a5)
    14dc:	04800793          	li	a5,72
    14e0:	00f71a63          	bne	a4,a5,14f4 <GPIO_Init+0x112>
    14e4:	fe842783          	lw	a5,-24(s0)
    14e8:	4705                	li	a4,1
    14ea:	00f71733          	sll	a4,a4,a5
    14ee:	fcc42783          	lw	a5,-52(s0)
    14f2:	cb98                	sw	a4,16(a5)
    14f4:	fe842783          	lw	a5,-24(s0)
    14f8:	0785                	addi	a5,a5,1
    14fa:	fef42423          	sw	a5,-24(s0)
    14fe:	fe842703          	lw	a4,-24(s0)
    1502:	479d                	li	a5,7
    1504:	f4e7f3e3          	bgeu	a5,a4,144a <GPIO_Init+0x68>
    1508:	fcc42783          	lw	a5,-52(s0)
    150c:	fe442703          	lw	a4,-28(s0)
    1510:	c398                	sw	a4,0(a5)
    1512:	fc842783          	lw	a5,-56(s0)
    1516:	239a                	lhu	a4,0(a5)
    1518:	0ff00793          	li	a5,255
    151c:	0ee7f063          	bgeu	a5,a4,15fc <GPIO_Init+0x21a>
    1520:	fcc42783          	lw	a5,-52(s0)
    1524:	43dc                	lw	a5,4(a5)
    1526:	fef42223          	sw	a5,-28(s0)
    152a:	fe042423          	sw	zero,-24(s0)
    152e:	a86d                	j	15e8 <GPIO_Init+0x206>
    1530:	fe842783          	lw	a5,-24(s0)
    1534:	07a1                	addi	a5,a5,8
    1536:	4705                	li	a4,1
    1538:	00f717b3          	sll	a5,a4,a5
    153c:	fcf42e23          	sw	a5,-36(s0)
    1540:	fc842783          	lw	a5,-56(s0)
    1544:	239e                	lhu	a5,0(a5)
    1546:	873e                	mv	a4,a5
    1548:	fdc42783          	lw	a5,-36(s0)
    154c:	8ff9                	and	a5,a5,a4
    154e:	fef42023          	sw	a5,-32(s0)
    1552:	fe042703          	lw	a4,-32(s0)
    1556:	fdc42783          	lw	a5,-36(s0)
    155a:	08f71263          	bne	a4,a5,15de <GPIO_Init+0x1fc>
    155e:	fe842783          	lw	a5,-24(s0)
    1562:	078a                	slli	a5,a5,0x2
    1564:	fcf42e23          	sw	a5,-36(s0)
    1568:	fdc42783          	lw	a5,-36(s0)
    156c:	473d                	li	a4,15
    156e:	00f717b3          	sll	a5,a4,a5
    1572:	fcf42c23          	sw	a5,-40(s0)
    1576:	fd842783          	lw	a5,-40(s0)
    157a:	fff7c793          	not	a5,a5
    157e:	fe442703          	lw	a4,-28(s0)
    1582:	8ff9                	and	a5,a5,a4
    1584:	fef42223          	sw	a5,-28(s0)
    1588:	fdc42783          	lw	a5,-36(s0)
    158c:	fec42703          	lw	a4,-20(s0)
    1590:	00f717b3          	sll	a5,a4,a5
    1594:	fe442703          	lw	a4,-28(s0)
    1598:	8fd9                	or	a5,a5,a4
    159a:	fef42223          	sw	a5,-28(s0)
    159e:	fc842783          	lw	a5,-56(s0)
    15a2:	4798                	lw	a4,8(a5)
    15a4:	02800793          	li	a5,40
    15a8:	00f71b63          	bne	a4,a5,15be <GPIO_Init+0x1dc>
    15ac:	fe842783          	lw	a5,-24(s0)
    15b0:	07a1                	addi	a5,a5,8
    15b2:	4705                	li	a4,1
    15b4:	00f71733          	sll	a4,a4,a5
    15b8:	fcc42783          	lw	a5,-52(s0)
    15bc:	cbd8                	sw	a4,20(a5)
    15be:	fc842783          	lw	a5,-56(s0)
    15c2:	4798                	lw	a4,8(a5)
    15c4:	04800793          	li	a5,72
    15c8:	00f71b63          	bne	a4,a5,15de <GPIO_Init+0x1fc>
    15cc:	fe842783          	lw	a5,-24(s0)
    15d0:	07a1                	addi	a5,a5,8
    15d2:	4705                	li	a4,1
    15d4:	00f71733          	sll	a4,a4,a5
    15d8:	fcc42783          	lw	a5,-52(s0)
    15dc:	cb98                	sw	a4,16(a5)
    15de:	fe842783          	lw	a5,-24(s0)
    15e2:	0785                	addi	a5,a5,1
    15e4:	fef42423          	sw	a5,-24(s0)
    15e8:	fe842703          	lw	a4,-24(s0)
    15ec:	479d                	li	a5,7
    15ee:	f4e7f1e3          	bgeu	a5,a4,1530 <GPIO_Init+0x14e>
    15f2:	fcc42783          	lw	a5,-52(s0)
    15f6:	fe442703          	lw	a4,-28(s0)
    15fa:	c3d8                	sw	a4,4(a5)
    15fc:	0001                	nop
    15fe:	5472                	lw	s0,60(sp)
    1600:	6121                	addi	sp,sp,64
    1602:	8082                	ret

00001604 <GPIO_SetBits>:
    1604:	1101                	addi	sp,sp,-32
    1606:	ce22                	sw	s0,28(sp)
    1608:	1000                	addi	s0,sp,32
    160a:	fea42623          	sw	a0,-20(s0)
    160e:	87ae                	mv	a5,a1
    1610:	fef41523          	sh	a5,-22(s0)
    1614:	fea45703          	lhu	a4,-22(s0)
    1618:	fec42783          	lw	a5,-20(s0)
    161c:	cb98                	sw	a4,16(a5)
    161e:	0001                	nop
    1620:	4472                	lw	s0,28(sp)
    1622:	6105                	addi	sp,sp,32
    1624:	8082                	ret

00001626 <GPIO_ResetBits>:
    1626:	1101                	addi	sp,sp,-32
    1628:	ce22                	sw	s0,28(sp)
    162a:	1000                	addi	s0,sp,32
    162c:	fea42623          	sw	a0,-20(s0)
    1630:	87ae                	mv	a5,a1
    1632:	fef41523          	sh	a5,-22(s0)
    1636:	fea45703          	lhu	a4,-22(s0)
    163a:	fec42783          	lw	a5,-20(s0)
    163e:	cbd8                	sw	a4,20(a5)
    1640:	0001                	nop
    1642:	4472                	lw	s0,28(sp)
    1644:	6105                	addi	sp,sp,32
    1646:	8082                	ret

00001648 <GPIO_PinRemapConfig>:
    1648:	7179                	addi	sp,sp,-48
    164a:	d622                	sw	s0,44(sp)
    164c:	1800                	addi	s0,sp,48
    164e:	fca42e23          	sw	a0,-36(s0)
    1652:	fcb42c23          	sw	a1,-40(s0)
    1656:	fe042423          	sw	zero,-24(s0)
    165a:	fe042223          	sw	zero,-28(s0)
    165e:	fe042623          	sw	zero,-20(s0)
    1662:	fe042023          	sw	zero,-32(s0)
    1666:	fdc42783          	lw	a5,-36(s0)
    166a:	0007d863          	bgez	a5,167a <GPIO_PinRemapConfig+0x32>
    166e:	400107b7          	lui	a5,0x40010
    1672:	4fdc                	lw	a5,28(a5)
    1674:	fef42623          	sw	a5,-20(s0)
    1678:	a031                	j	1684 <GPIO_PinRemapConfig+0x3c>
    167a:	400107b7          	lui	a5,0x40010
    167e:	43dc                	lw	a5,4(a5)
    1680:	fef42623          	sw	a5,-20(s0)
    1684:	fdc42783          	lw	a5,-36(s0)
    1688:	83c1                	srli	a5,a5,0x10
    168a:	8bbd                	andi	a5,a5,15
    168c:	fef42023          	sw	a5,-32(s0)
    1690:	fdc42703          	lw	a4,-36(s0)
    1694:	67c1                	lui	a5,0x10
    1696:	17fd                	addi	a5,a5,-1
    1698:	8ff9                	and	a5,a5,a4
    169a:	fef42423          	sw	a5,-24(s0)
    169e:	fdc42783          	lw	a5,-36(s0)
    16a2:	0807d663          	bgez	a5,172e <GPIO_PinRemapConfig+0xe6>
    16a6:	fdc42703          	lw	a4,-36(s0)
    16aa:	003007b7          	lui	a5,0x300
    16ae:	8f7d                	and	a4,a4,a5
    16b0:	003007b7          	lui	a5,0x300
    16b4:	02f71463          	bne	a4,a5,16dc <GPIO_PinRemapConfig+0x94>
    16b8:	fe042783          	lw	a5,-32(s0)
    16bc:	07c1                	addi	a5,a5,16
    16be:	470d                	li	a4,3
    16c0:	00f717b3          	sll	a5,a4,a5
    16c4:	fef42223          	sw	a5,-28(s0)
    16c8:	fe442783          	lw	a5,-28(s0)
    16cc:	fff7c793          	not	a5,a5
    16d0:	fec42703          	lw	a4,-20(s0)
    16d4:	8ff9                	and	a5,a5,a4
    16d6:	fef42623          	sw	a5,-20(s0)
    16da:	a8d5                	j	17ce <GPIO_PinRemapConfig+0x186>
    16dc:	fdc42703          	lw	a4,-36(s0)
    16e0:	001007b7          	lui	a5,0x100
    16e4:	8ff9                	and	a5,a5,a4
    16e6:	c395                	beqz	a5,170a <GPIO_PinRemapConfig+0xc2>
    16e8:	fe042783          	lw	a5,-32(s0)
    16ec:	470d                	li	a4,3
    16ee:	00f717b3          	sll	a5,a4,a5
    16f2:	fef42223          	sw	a5,-28(s0)
    16f6:	fe442783          	lw	a5,-28(s0)
    16fa:	fff7c793          	not	a5,a5
    16fe:	fec42703          	lw	a4,-20(s0)
    1702:	8ff9                	and	a5,a5,a4
    1704:	fef42623          	sw	a5,-20(s0)
    1708:	a0d9                	j	17ce <GPIO_PinRemapConfig+0x186>
    170a:	fdc42783          	lw	a5,-36(s0)
    170e:	83d5                	srli	a5,a5,0x15
    1710:	3ff7f793          	andi	a5,a5,1023
    1714:	0792                	slli	a5,a5,0x4
    1716:	fe842703          	lw	a4,-24(s0)
    171a:	00f717b3          	sll	a5,a4,a5
    171e:	fff7c793          	not	a5,a5
    1722:	fec42703          	lw	a4,-20(s0)
    1726:	8ff9                	and	a5,a5,a4
    1728:	fef42623          	sw	a5,-20(s0)
    172c:	a04d                	j	17ce <GPIO_PinRemapConfig+0x186>
    172e:	fdc42703          	lw	a4,-36(s0)
    1732:	003007b7          	lui	a5,0x300
    1736:	8f7d                	and	a4,a4,a5
    1738:	003007b7          	lui	a5,0x300
    173c:	02f71563          	bne	a4,a5,1766 <GPIO_PinRemapConfig+0x11e>
    1740:	fec42703          	lw	a4,-20(s0)
    1744:	f10007b7          	lui	a5,0xf1000
    1748:	17fd                	addi	a5,a5,-1
    174a:	8ff9                	and	a5,a5,a4
    174c:	fef42623          	sw	a5,-20(s0)
    1750:	400107b7          	lui	a5,0x40010
    1754:	43d4                	lw	a3,4(a5)
    1756:	400107b7          	lui	a5,0x40010
    175a:	f1000737          	lui	a4,0xf1000
    175e:	177d                	addi	a4,a4,-1
    1760:	8f75                	and	a4,a4,a3
    1762:	c3d8                	sw	a4,4(a5)
    1764:	a0ad                	j	17ce <GPIO_PinRemapConfig+0x186>
    1766:	fdc42703          	lw	a4,-36(s0)
    176a:	001007b7          	lui	a5,0x100
    176e:	8ff9                	and	a5,a5,a4
    1770:	cb8d                	beqz	a5,17a2 <GPIO_PinRemapConfig+0x15a>
    1772:	fe042783          	lw	a5,-32(s0)
    1776:	470d                	li	a4,3
    1778:	00f717b3          	sll	a5,a4,a5
    177c:	fef42223          	sw	a5,-28(s0)
    1780:	fe442783          	lw	a5,-28(s0)
    1784:	fff7c793          	not	a5,a5
    1788:	fec42703          	lw	a4,-20(s0)
    178c:	8ff9                	and	a5,a5,a4
    178e:	fef42623          	sw	a5,-20(s0)
    1792:	fec42703          	lw	a4,-20(s0)
    1796:	0f0007b7          	lui	a5,0xf000
    179a:	8fd9                	or	a5,a5,a4
    179c:	fef42623          	sw	a5,-20(s0)
    17a0:	a03d                	j	17ce <GPIO_PinRemapConfig+0x186>
    17a2:	fdc42783          	lw	a5,-36(s0)
    17a6:	83d5                	srli	a5,a5,0x15
    17a8:	0792                	slli	a5,a5,0x4
    17aa:	fe842703          	lw	a4,-24(s0)
    17ae:	00f717b3          	sll	a5,a4,a5
    17b2:	fff7c793          	not	a5,a5
    17b6:	fec42703          	lw	a4,-20(s0)
    17ba:	8ff9                	and	a5,a5,a4
    17bc:	fef42623          	sw	a5,-20(s0)
    17c0:	fec42703          	lw	a4,-20(s0)
    17c4:	0f0007b7          	lui	a5,0xf000
    17c8:	8fd9                	or	a5,a5,a4
    17ca:	fef42623          	sw	a5,-20(s0)
    17ce:	fd842783          	lw	a5,-40(s0)
    17d2:	c385                	beqz	a5,17f2 <GPIO_PinRemapConfig+0x1aa>
    17d4:	fdc42783          	lw	a5,-36(s0)
    17d8:	83d5                	srli	a5,a5,0x15
    17da:	3ff7f793          	andi	a5,a5,1023
    17de:	0792                	slli	a5,a5,0x4
    17e0:	fe842703          	lw	a4,-24(s0)
    17e4:	00f717b3          	sll	a5,a4,a5
    17e8:	fec42703          	lw	a4,-20(s0)
    17ec:	8fd9                	or	a5,a5,a4
    17ee:	fef42623          	sw	a5,-20(s0)
    17f2:	fdc42783          	lw	a5,-36(s0)
    17f6:	0007d863          	bgez	a5,1806 <GPIO_PinRemapConfig+0x1be>
    17fa:	400107b7          	lui	a5,0x40010
    17fe:	fec42703          	lw	a4,-20(s0)
    1802:	cfd8                	sw	a4,28(a5)
    1804:	a031                	j	1810 <GPIO_PinRemapConfig+0x1c8>
    1806:	400107b7          	lui	a5,0x40010
    180a:	fec42703          	lw	a4,-20(s0)
    180e:	c3d8                	sw	a4,4(a5)
    1810:	0001                	nop
    1812:	5432                	lw	s0,44(sp)
    1814:	6145                	addi	sp,sp,48
    1816:	8082                	ret

00001818 <NVIC_Init>:
    1818:	7179                	addi	sp,sp,-48
    181a:	d622                	sw	s0,44(sp)
    181c:	1800                	addi	s0,sp,48
    181e:	fca42e23          	sw	a0,-36(s0)
    1822:	8141a703          	lw	a4,-2028(gp) # 200001b4 <NVIC_Priority_Group>
    1826:	4789                	li	a5,2
    1828:	04f71b63          	bne	a4,a5,187e <NVIC_Init+0x66>
    182c:	fdc42783          	lw	a5,-36(s0)
    1830:	3398                	lbu	a4,1(a5)
    1832:	478d                	li	a5,3
    1834:	04e7e563          	bltu	a5,a4,187e <NVIC_Init+0x66>
    1838:	fdc42783          	lw	a5,-36(s0)
    183c:	239c                	lbu	a5,0(a5)
    183e:	86be                	mv	a3,a5
    1840:	fdc42783          	lw	a5,-36(s0)
    1844:	339c                	lbu	a5,1(a5)
    1846:	079a                	slli	a5,a5,0x6
    1848:	01879713          	slli	a4,a5,0x18
    184c:	8761                	srai	a4,a4,0x18
    184e:	fdc42783          	lw	a5,-36(s0)
    1852:	23bc                	lbu	a5,2(a5)
    1854:	0796                	slli	a5,a5,0x5
    1856:	07e2                	slli	a5,a5,0x18
    1858:	87e1                	srai	a5,a5,0x18
    185a:	8fd9                	or	a5,a5,a4
    185c:	07e2                	slli	a5,a5,0x18
    185e:	87e1                	srai	a5,a5,0x18
    1860:	0ff7f793          	andi	a5,a5,255
    1864:	fed42623          	sw	a3,-20(s0)
    1868:	fef405a3          	sb	a5,-21(s0)
    186c:	e000e737          	lui	a4,0xe000e
    1870:	fec42783          	lw	a5,-20(s0)
    1874:	97ba                	add	a5,a5,a4
    1876:	feb44703          	lbu	a4,-21(s0)
    187a:	40e78023          	sb	a4,1024(a5) # 40010400 <_eusrstack+0x20008400>
    187e:	fdc42783          	lw	a5,-36(s0)
    1882:	43dc                	lw	a5,4(a5)
    1884:	c79d                	beqz	a5,18b2 <NVIC_Init+0x9a>
    1886:	fdc42783          	lw	a5,-36(s0)
    188a:	239c                	lbu	a5,0(a5)
    188c:	fef42223          	sw	a5,-28(s0)
    1890:	fe442783          	lw	a5,-28(s0)
    1894:	8bfd                	andi	a5,a5,31
    1896:	4705                	li	a4,1
    1898:	00f716b3          	sll	a3,a4,a5
    189c:	e000e737          	lui	a4,0xe000e
    18a0:	fe442783          	lw	a5,-28(s0)
    18a4:	8395                	srli	a5,a5,0x5
    18a6:	04078793          	addi	a5,a5,64
    18aa:	078a                	slli	a5,a5,0x2
    18ac:	97ba                	add	a5,a5,a4
    18ae:	c394                	sw	a3,0(a5)
    18b0:	a035                	j	18dc <NVIC_Init+0xc4>
    18b2:	fdc42783          	lw	a5,-36(s0)
    18b6:	239c                	lbu	a5,0(a5)
    18b8:	fef42023          	sw	a5,-32(s0)
    18bc:	fe042783          	lw	a5,-32(s0)
    18c0:	8bfd                	andi	a5,a5,31
    18c2:	4705                	li	a4,1
    18c4:	00f716b3          	sll	a3,a4,a5
    18c8:	e000e737          	lui	a4,0xe000e
    18cc:	fe042783          	lw	a5,-32(s0)
    18d0:	8395                	srli	a5,a5,0x5
    18d2:	06078793          	addi	a5,a5,96
    18d6:	078a                	slli	a5,a5,0x2
    18d8:	97ba                	add	a5,a5,a4
    18da:	c394                	sw	a3,0(a5)
    18dc:	0001                	nop
    18de:	5432                	lw	s0,44(sp)
    18e0:	6145                	addi	sp,sp,48
    18e2:	8082                	ret

000018e4 <RCC_ADCCLKConfig>:
    18e4:	7179                	addi	sp,sp,-48
    18e6:	d622                	sw	s0,44(sp)
    18e8:	1800                	addi	s0,sp,48
    18ea:	fca42e23          	sw	a0,-36(s0)
    18ee:	fe042623          	sw	zero,-20(s0)
    18f2:	400217b7          	lui	a5,0x40021
    18f6:	43dc                	lw	a5,4(a5)
    18f8:	fef42623          	sw	a5,-20(s0)
    18fc:	fec42703          	lw	a4,-20(s0)
    1900:	77d1                	lui	a5,0xffff4
    1902:	17fd                	addi	a5,a5,-1
    1904:	8ff9                	and	a5,a5,a4
    1906:	fef42623          	sw	a5,-20(s0)
    190a:	fec42703          	lw	a4,-20(s0)
    190e:	fdc42783          	lw	a5,-36(s0)
    1912:	8fd9                	or	a5,a5,a4
    1914:	fef42623          	sw	a5,-20(s0)
    1918:	400217b7          	lui	a5,0x40021
    191c:	fec42703          	lw	a4,-20(s0)
    1920:	c3d8                	sw	a4,4(a5)
    1922:	0001                	nop
    1924:	5432                	lw	s0,44(sp)
    1926:	6145                	addi	sp,sp,48
    1928:	8082                	ret

0000192a <RCC_GetClocksFreq>:
    192a:	7139                	addi	sp,sp,-64
    192c:	de22                	sw	s0,60(sp)
    192e:	0080                	addi	s0,sp,64
    1930:	fca42623          	sw	a0,-52(s0)
    1934:	fe042223          	sw	zero,-28(s0)
    1938:	fe042623          	sw	zero,-20(s0)
    193c:	fe042023          	sw	zero,-32(s0)
    1940:	fc042e23          	sw	zero,-36(s0)
    1944:	fe0405a3          	sb	zero,-21(s0)
    1948:	fc040da3          	sb	zero,-37(s0)
    194c:	400217b7          	lui	a5,0x40021
    1950:	43dc                	lw	a5,4(a5)
    1952:	8bb1                	andi	a5,a5,12
    1954:	fef42223          	sw	a5,-28(s0)
    1958:	fe442703          	lw	a4,-28(s0)
    195c:	4791                	li	a5,4
    195e:	02f70363          	beq	a4,a5,1984 <RCC_GetClocksFreq+0x5a>
    1962:	fe442703          	lw	a4,-28(s0)
    1966:	47a1                	li	a5,8
    1968:	02f70663          	beq	a4,a5,1994 <RCC_GetClocksFreq+0x6a>
    196c:	fe442783          	lw	a5,-28(s0)
    1970:	20079d63          	bnez	a5,1b8a <RCC_GetClocksFreq+0x260>
    1974:	fcc42783          	lw	a5,-52(s0)
    1978:	007a1737          	lui	a4,0x7a1
    197c:	20070713          	addi	a4,a4,512 # 7a1200 <_data_lma+0x79ae54>
    1980:	c398                	sw	a4,0(a5)
    1982:	ac29                	j	1b9c <RCC_GetClocksFreq+0x272>
    1984:	fcc42783          	lw	a5,-52(s0)
    1988:	007a1737          	lui	a4,0x7a1
    198c:	20070713          	addi	a4,a4,512 # 7a1200 <_data_lma+0x79ae54>
    1990:	c398                	sw	a4,0(a5)
    1992:	a429                	j	1b9c <RCC_GetClocksFreq+0x272>
    1994:	400217b7          	lui	a5,0x40021
    1998:	43d8                	lw	a4,4(a5)
    199a:	003c07b7          	lui	a5,0x3c0
    199e:	8ff9                	and	a5,a5,a4
    19a0:	fef42623          	sw	a5,-20(s0)
    19a4:	400217b7          	lui	a5,0x40021
    19a8:	43d8                	lw	a4,4(a5)
    19aa:	67c1                	lui	a5,0x10
    19ac:	8ff9                	and	a5,a5,a4
    19ae:	fef42023          	sw	a5,-32(s0)
    19b2:	fec42783          	lw	a5,-20(s0)
    19b6:	83c9                	srli	a5,a5,0x12
    19b8:	0789                	addi	a5,a5,2
    19ba:	fef42623          	sw	a5,-20(s0)
    19be:	1ffff7b7          	lui	a5,0x1ffff
    19c2:	70c78793          	addi	a5,a5,1804 # 1ffff70c <_data_lma+0x1fff9360>
    19c6:	4398                	lw	a4,0(a5)
    19c8:	6791                	lui	a5,0x4
    19ca:	8ff9                	and	a5,a5,a4
    19cc:	eb91                	bnez	a5,19e0 <RCC_GetClocksFreq+0xb6>
    19ce:	fec42703          	lw	a4,-20(s0)
    19d2:	47c5                	li	a5,17
    19d4:	04f71963          	bne	a4,a5,1a26 <RCC_GetClocksFreq+0xfc>
    19d8:	47c9                	li	a5,18
    19da:	fef42623          	sw	a5,-20(s0)
    19de:	a0a1                	j	1a26 <RCC_GetClocksFreq+0xfc>
    19e0:	fec42703          	lw	a4,-20(s0)
    19e4:	4789                	li	a5,2
    19e6:	00f71563          	bne	a4,a5,19f0 <RCC_GetClocksFreq+0xc6>
    19ea:	47c9                	li	a5,18
    19ec:	fef42623          	sw	a5,-20(s0)
    19f0:	fec42703          	lw	a4,-20(s0)
    19f4:	47bd                	li	a5,15
    19f6:	00f71863          	bne	a4,a5,1a06 <RCC_GetClocksFreq+0xdc>
    19fa:	47b5                	li	a5,13
    19fc:	fef42623          	sw	a5,-20(s0)
    1a00:	4785                	li	a5,1
    1a02:	fef405a3          	sb	a5,-21(s0)
    1a06:	fec42703          	lw	a4,-20(s0)
    1a0a:	47c1                	li	a5,16
    1a0c:	00f71563          	bne	a4,a5,1a16 <RCC_GetClocksFreq+0xec>
    1a10:	47bd                	li	a5,15
    1a12:	fef42623          	sw	a5,-20(s0)
    1a16:	fec42703          	lw	a4,-20(s0)
    1a1a:	47c5                	li	a5,17
    1a1c:	00f71563          	bne	a4,a5,1a26 <RCC_GetClocksFreq+0xfc>
    1a20:	47c1                	li	a5,16
    1a22:	fef42623          	sw	a5,-20(s0)
    1a26:	fe042783          	lw	a5,-32(s0)
    1a2a:	e3a1                	bnez	a5,1a6a <RCC_GetClocksFreq+0x140>
    1a2c:	400247b7          	lui	a5,0x40024
    1a30:	80078793          	addi	a5,a5,-2048 # 40023800 <_eusrstack+0x2001b800>
    1a34:	439c                	lw	a5,0(a5)
    1a36:	8bc1                	andi	a5,a5,16
    1a38:	cf89                	beqz	a5,1a52 <RCC_GetClocksFreq+0x128>
    1a3a:	fec42703          	lw	a4,-20(s0)
    1a3e:	007a17b7          	lui	a5,0x7a1
    1a42:	20078793          	addi	a5,a5,512 # 7a1200 <_data_lma+0x79ae54>
    1a46:	02f70733          	mul	a4,a4,a5
    1a4a:	fcc42783          	lw	a5,-52(s0)
    1a4e:	c398                	sw	a4,0(a5)
    1a50:	aa39                	j	1b6e <RCC_GetClocksFreq+0x244>
    1a52:	fec42703          	lw	a4,-20(s0)
    1a56:	003d17b7          	lui	a5,0x3d1
    1a5a:	90078793          	addi	a5,a5,-1792 # 3d0900 <_data_lma+0x3ca554>
    1a5e:	02f70733          	mul	a4,a4,a5
    1a62:	fcc42783          	lw	a5,-52(s0)
    1a66:	c398                	sw	a4,0(a5)
    1a68:	a219                	j	1b6e <RCC_GetClocksFreq+0x244>
    1a6a:	400217b7          	lui	a5,0x40021
    1a6e:	57d8                	lw	a4,44(a5)
    1a70:	67c1                	lui	a5,0x10
    1a72:	8ff9                	and	a5,a5,a4
    1a74:	c7e9                	beqz	a5,1b3e <RCC_GetClocksFreq+0x214>
    1a76:	400217b7          	lui	a5,0x40021
    1a7a:	57dc                	lw	a5,44(a5)
    1a7c:	8391                	srli	a5,a5,0x4
    1a7e:	8bbd                	andi	a5,a5,15
    1a80:	0785                	addi	a5,a5,1
    1a82:	007a1737          	lui	a4,0x7a1
    1a86:	20070713          	addi	a4,a4,512 # 7a1200 <_data_lma+0x79ae54>
    1a8a:	02f75733          	divu	a4,a4,a5
    1a8e:	fcc42783          	lw	a5,-52(s0)
    1a92:	c398                	sw	a4,0(a5)
    1a94:	400217b7          	lui	a5,0x40021
    1a98:	57dc                	lw	a5,44(a5)
    1a9a:	83a1                	srli	a5,a5,0x8
    1a9c:	0ff7f793          	andi	a5,a5,255
    1aa0:	8bbd                	andi	a5,a5,15
    1aa2:	fcf40da3          	sb	a5,-37(s0)
    1aa6:	fdb44783          	lbu	a5,-37(s0)
    1aaa:	ef89                	bnez	a5,1ac4 <RCC_GetClocksFreq+0x19a>
    1aac:	fcc42783          	lw	a5,-52(s0)
    1ab0:	4398                	lw	a4,0(a5)
    1ab2:	87ba                	mv	a5,a4
    1ab4:	078a                	slli	a5,a5,0x2
    1ab6:	97ba                	add	a5,a5,a4
    1ab8:	0017d713          	srli	a4,a5,0x1
    1abc:	fcc42783          	lw	a5,-52(s0)
    1ac0:	c398                	sw	a4,0(a5)
    1ac2:	a085                	j	1b22 <RCC_GetClocksFreq+0x1f8>
    1ac4:	fdb44703          	lbu	a4,-37(s0)
    1ac8:	4785                	li	a5,1
    1aca:	02f71063          	bne	a4,a5,1aea <RCC_GetClocksFreq+0x1c0>
    1ace:	fcc42783          	lw	a5,-52(s0)
    1ad2:	4398                	lw	a4,0(a5)
    1ad4:	87ba                	mv	a5,a4
    1ad6:	0786                	slli	a5,a5,0x1
    1ad8:	97ba                	add	a5,a5,a4
    1ada:	078e                	slli	a5,a5,0x3
    1adc:	97ba                	add	a5,a5,a4
    1ade:	0017d713          	srli	a4,a5,0x1
    1ae2:	fcc42783          	lw	a5,-52(s0)
    1ae6:	c398                	sw	a4,0(a5)
    1ae8:	a82d                	j	1b22 <RCC_GetClocksFreq+0x1f8>
    1aea:	fdb44703          	lbu	a4,-37(s0)
    1aee:	47bd                	li	a5,15
    1af0:	00f71e63          	bne	a4,a5,1b0c <RCC_GetClocksFreq+0x1e2>
    1af4:	fcc42783          	lw	a5,-52(s0)
    1af8:	4398                	lw	a4,0(a5)
    1afa:	87ba                	mv	a5,a4
    1afc:	078a                	slli	a5,a5,0x2
    1afe:	97ba                	add	a5,a5,a4
    1b00:	078a                	slli	a5,a5,0x2
    1b02:	873e                	mv	a4,a5
    1b04:	fcc42783          	lw	a5,-52(s0)
    1b08:	c398                	sw	a4,0(a5)
    1b0a:	a821                	j	1b22 <RCC_GetClocksFreq+0x1f8>
    1b0c:	fcc42783          	lw	a5,-52(s0)
    1b10:	439c                	lw	a5,0(a5)
    1b12:	fdb44703          	lbu	a4,-37(s0)
    1b16:	0709                	addi	a4,a4,2
    1b18:	02e78733          	mul	a4,a5,a4
    1b1c:	fcc42783          	lw	a5,-52(s0)
    1b20:	c398                	sw	a4,0(a5)
    1b22:	fcc42783          	lw	a5,-52(s0)
    1b26:	4398                	lw	a4,0(a5)
    1b28:	400217b7          	lui	a5,0x40021
    1b2c:	57dc                	lw	a5,44(a5)
    1b2e:	8bbd                	andi	a5,a5,15
    1b30:	0785                	addi	a5,a5,1
    1b32:	02f75733          	divu	a4,a4,a5
    1b36:	fcc42783          	lw	a5,-52(s0)
    1b3a:	c398                	sw	a4,0(a5)
    1b3c:	a839                	j	1b5a <RCC_GetClocksFreq+0x230>
    1b3e:	400217b7          	lui	a5,0x40021
    1b42:	57dc                	lw	a5,44(a5)
    1b44:	8bbd                	andi	a5,a5,15
    1b46:	0785                	addi	a5,a5,1
    1b48:	007a1737          	lui	a4,0x7a1
    1b4c:	20070713          	addi	a4,a4,512 # 7a1200 <_data_lma+0x79ae54>
    1b50:	02f75733          	divu	a4,a4,a5
    1b54:	fcc42783          	lw	a5,-52(s0)
    1b58:	c398                	sw	a4,0(a5)
    1b5a:	fcc42783          	lw	a5,-52(s0)
    1b5e:	4398                	lw	a4,0(a5)
    1b60:	fec42783          	lw	a5,-20(s0)
    1b64:	02f70733          	mul	a4,a4,a5
    1b68:	fcc42783          	lw	a5,-52(s0)
    1b6c:	c398                	sw	a4,0(a5)
    1b6e:	feb44703          	lbu	a4,-21(s0)
    1b72:	4785                	li	a5,1
    1b74:	02f71363          	bne	a4,a5,1b9a <RCC_GetClocksFreq+0x270>
    1b78:	fcc42783          	lw	a5,-52(s0)
    1b7c:	439c                	lw	a5,0(a5)
    1b7e:	0017d713          	srli	a4,a5,0x1
    1b82:	fcc42783          	lw	a5,-52(s0)
    1b86:	c398                	sw	a4,0(a5)
    1b88:	a809                	j	1b9a <RCC_GetClocksFreq+0x270>
    1b8a:	fcc42783          	lw	a5,-52(s0)
    1b8e:	007a1737          	lui	a4,0x7a1
    1b92:	20070713          	addi	a4,a4,512 # 7a1200 <_data_lma+0x79ae54>
    1b96:	c398                	sw	a4,0(a5)
    1b98:	a011                	j	1b9c <RCC_GetClocksFreq+0x272>
    1b9a:	0001                	nop
    1b9c:	400217b7          	lui	a5,0x40021
    1ba0:	43dc                	lw	a5,4(a5)
    1ba2:	0f07f793          	andi	a5,a5,240
    1ba6:	fef42223          	sw	a5,-28(s0)
    1baa:	fe442783          	lw	a5,-28(s0)
    1bae:	8391                	srli	a5,a5,0x4
    1bb0:	fef42223          	sw	a5,-28(s0)
    1bb4:	200007b7          	lui	a5,0x20000
    1bb8:	12c78713          	addi	a4,a5,300 # 2000012c <APBAHBPrescTable>
    1bbc:	fe442783          	lw	a5,-28(s0)
    1bc0:	97ba                	add	a5,a5,a4
    1bc2:	239c                	lbu	a5,0(a5)
    1bc4:	0ff7f793          	andi	a5,a5,255
    1bc8:	fcf42e23          	sw	a5,-36(s0)
    1bcc:	fcc42783          	lw	a5,-52(s0)
    1bd0:	4398                	lw	a4,0(a5)
    1bd2:	fdc42783          	lw	a5,-36(s0)
    1bd6:	00f75733          	srl	a4,a4,a5
    1bda:	fcc42783          	lw	a5,-52(s0)
    1bde:	c3d8                	sw	a4,4(a5)
    1be0:	400217b7          	lui	a5,0x40021
    1be4:	43dc                	lw	a5,4(a5)
    1be6:	7007f793          	andi	a5,a5,1792
    1bea:	fef42223          	sw	a5,-28(s0)
    1bee:	fe442783          	lw	a5,-28(s0)
    1bf2:	83a1                	srli	a5,a5,0x8
    1bf4:	fef42223          	sw	a5,-28(s0)
    1bf8:	200007b7          	lui	a5,0x20000
    1bfc:	12c78713          	addi	a4,a5,300 # 2000012c <APBAHBPrescTable>
    1c00:	fe442783          	lw	a5,-28(s0)
    1c04:	97ba                	add	a5,a5,a4
    1c06:	239c                	lbu	a5,0(a5)
    1c08:	0ff7f793          	andi	a5,a5,255
    1c0c:	fcf42e23          	sw	a5,-36(s0)
    1c10:	fcc42783          	lw	a5,-52(s0)
    1c14:	43d8                	lw	a4,4(a5)
    1c16:	fdc42783          	lw	a5,-36(s0)
    1c1a:	00f75733          	srl	a4,a4,a5
    1c1e:	fcc42783          	lw	a5,-52(s0)
    1c22:	c798                	sw	a4,8(a5)
    1c24:	400217b7          	lui	a5,0x40021
    1c28:	43d8                	lw	a4,4(a5)
    1c2a:	6791                	lui	a5,0x4
    1c2c:	80078793          	addi	a5,a5,-2048 # 3800 <HandleEspSpocolCommand+0x216>
    1c30:	8ff9                	and	a5,a5,a4
    1c32:	fef42223          	sw	a5,-28(s0)
    1c36:	fe442783          	lw	a5,-28(s0)
    1c3a:	83ad                	srli	a5,a5,0xb
    1c3c:	fef42223          	sw	a5,-28(s0)
    1c40:	200007b7          	lui	a5,0x20000
    1c44:	12c78713          	addi	a4,a5,300 # 2000012c <APBAHBPrescTable>
    1c48:	fe442783          	lw	a5,-28(s0)
    1c4c:	97ba                	add	a5,a5,a4
    1c4e:	239c                	lbu	a5,0(a5)
    1c50:	0ff7f793          	andi	a5,a5,255
    1c54:	fcf42e23          	sw	a5,-36(s0)
    1c58:	fcc42783          	lw	a5,-52(s0)
    1c5c:	43d8                	lw	a4,4(a5)
    1c5e:	fdc42783          	lw	a5,-36(s0)
    1c62:	00f75733          	srl	a4,a4,a5
    1c66:	fcc42783          	lw	a5,-52(s0)
    1c6a:	c7d8                	sw	a4,12(a5)
    1c6c:	400217b7          	lui	a5,0x40021
    1c70:	43d8                	lw	a4,4(a5)
    1c72:	67b1                	lui	a5,0xc
    1c74:	8ff9                	and	a5,a5,a4
    1c76:	fef42223          	sw	a5,-28(s0)
    1c7a:	fe442783          	lw	a5,-28(s0)
    1c7e:	83b9                	srli	a5,a5,0xe
    1c80:	fef42223          	sw	a5,-28(s0)
    1c84:	200007b7          	lui	a5,0x20000
    1c88:	1a478713          	addi	a4,a5,420 # 200001a4 <ADCPrescTable>
    1c8c:	fe442783          	lw	a5,-28(s0)
    1c90:	97ba                	add	a5,a5,a4
    1c92:	239c                	lbu	a5,0(a5)
    1c94:	0ff7f793          	andi	a5,a5,255
    1c98:	fcf42e23          	sw	a5,-36(s0)
    1c9c:	fcc42783          	lw	a5,-52(s0)
    1ca0:	47d8                	lw	a4,12(a5)
    1ca2:	fdc42783          	lw	a5,-36(s0)
    1ca6:	02f75733          	divu	a4,a4,a5
    1caa:	fcc42783          	lw	a5,-52(s0)
    1cae:	cb98                	sw	a4,16(a5)
    1cb0:	0001                	nop
    1cb2:	5472                	lw	s0,60(sp)
    1cb4:	6121                	addi	sp,sp,64
    1cb6:	8082                	ret

00001cb8 <RCC_AHBPeriphClockCmd>:
    1cb8:	1101                	addi	sp,sp,-32
    1cba:	ce22                	sw	s0,28(sp)
    1cbc:	1000                	addi	s0,sp,32
    1cbe:	fea42623          	sw	a0,-20(s0)
    1cc2:	feb42423          	sw	a1,-24(s0)
    1cc6:	fe842783          	lw	a5,-24(s0)
    1cca:	cb99                	beqz	a5,1ce0 <RCC_AHBPeriphClockCmd+0x28>
    1ccc:	400217b7          	lui	a5,0x40021
    1cd0:	4bd4                	lw	a3,20(a5)
    1cd2:	400217b7          	lui	a5,0x40021
    1cd6:	fec42703          	lw	a4,-20(s0)
    1cda:	8f55                	or	a4,a4,a3
    1cdc:	cbd8                	sw	a4,20(a5)
    1cde:	a821                	j	1cf6 <RCC_AHBPeriphClockCmd+0x3e>
    1ce0:	400217b7          	lui	a5,0x40021
    1ce4:	4bd4                	lw	a3,20(a5)
    1ce6:	fec42783          	lw	a5,-20(s0)
    1cea:	fff7c713          	not	a4,a5
    1cee:	400217b7          	lui	a5,0x40021
    1cf2:	8f75                	and	a4,a4,a3
    1cf4:	cbd8                	sw	a4,20(a5)
    1cf6:	0001                	nop
    1cf8:	4472                	lw	s0,28(sp)
    1cfa:	6105                	addi	sp,sp,32
    1cfc:	8082                	ret

00001cfe <RCC_APB2PeriphClockCmd>:
    1cfe:	1101                	addi	sp,sp,-32
    1d00:	ce22                	sw	s0,28(sp)
    1d02:	1000                	addi	s0,sp,32
    1d04:	fea42623          	sw	a0,-20(s0)
    1d08:	feb42423          	sw	a1,-24(s0)
    1d0c:	fe842783          	lw	a5,-24(s0)
    1d10:	cb99                	beqz	a5,1d26 <RCC_APB2PeriphClockCmd+0x28>
    1d12:	400217b7          	lui	a5,0x40021
    1d16:	4f94                	lw	a3,24(a5)
    1d18:	400217b7          	lui	a5,0x40021
    1d1c:	fec42703          	lw	a4,-20(s0)
    1d20:	8f55                	or	a4,a4,a3
    1d22:	cf98                	sw	a4,24(a5)
    1d24:	a821                	j	1d3c <RCC_APB2PeriphClockCmd+0x3e>
    1d26:	400217b7          	lui	a5,0x40021
    1d2a:	4f94                	lw	a3,24(a5)
    1d2c:	fec42783          	lw	a5,-20(s0)
    1d30:	fff7c713          	not	a4,a5
    1d34:	400217b7          	lui	a5,0x40021
    1d38:	8f75                	and	a4,a4,a3
    1d3a:	cf98                	sw	a4,24(a5)
    1d3c:	0001                	nop
    1d3e:	4472                	lw	s0,28(sp)
    1d40:	6105                	addi	sp,sp,32
    1d42:	8082                	ret

00001d44 <RCC_APB1PeriphClockCmd>:
    1d44:	1101                	addi	sp,sp,-32
    1d46:	ce22                	sw	s0,28(sp)
    1d48:	1000                	addi	s0,sp,32
    1d4a:	fea42623          	sw	a0,-20(s0)
    1d4e:	feb42423          	sw	a1,-24(s0)
    1d52:	fe842783          	lw	a5,-24(s0)
    1d56:	cb99                	beqz	a5,1d6c <RCC_APB1PeriphClockCmd+0x28>
    1d58:	400217b7          	lui	a5,0x40021
    1d5c:	4fd4                	lw	a3,28(a5)
    1d5e:	400217b7          	lui	a5,0x40021
    1d62:	fec42703          	lw	a4,-20(s0)
    1d66:	8f55                	or	a4,a4,a3
    1d68:	cfd8                	sw	a4,28(a5)
    1d6a:	a821                	j	1d82 <RCC_APB1PeriphClockCmd+0x3e>
    1d6c:	400217b7          	lui	a5,0x40021
    1d70:	4fd4                	lw	a3,28(a5)
    1d72:	fec42783          	lw	a5,-20(s0)
    1d76:	fff7c713          	not	a4,a5
    1d7a:	400217b7          	lui	a5,0x40021
    1d7e:	8f75                	and	a4,a4,a3
    1d80:	cfd8                	sw	a4,28(a5)
    1d82:	0001                	nop
    1d84:	4472                	lw	s0,28(sp)
    1d86:	6105                	addi	sp,sp,32
    1d88:	8082                	ret

00001d8a <RCC_APB2PeriphResetCmd>:
    1d8a:	1101                	addi	sp,sp,-32
    1d8c:	ce22                	sw	s0,28(sp)
    1d8e:	1000                	addi	s0,sp,32
    1d90:	fea42623          	sw	a0,-20(s0)
    1d94:	feb42423          	sw	a1,-24(s0)
    1d98:	fe842783          	lw	a5,-24(s0)
    1d9c:	cb99                	beqz	a5,1db2 <RCC_APB2PeriphResetCmd+0x28>
    1d9e:	400217b7          	lui	a5,0x40021
    1da2:	47d4                	lw	a3,12(a5)
    1da4:	400217b7          	lui	a5,0x40021
    1da8:	fec42703          	lw	a4,-20(s0)
    1dac:	8f55                	or	a4,a4,a3
    1dae:	c7d8                	sw	a4,12(a5)
    1db0:	a821                	j	1dc8 <RCC_APB2PeriphResetCmd+0x3e>
    1db2:	400217b7          	lui	a5,0x40021
    1db6:	47d4                	lw	a3,12(a5)
    1db8:	fec42783          	lw	a5,-20(s0)
    1dbc:	fff7c713          	not	a4,a5
    1dc0:	400217b7          	lui	a5,0x40021
    1dc4:	8f75                	and	a4,a4,a3
    1dc6:	c7d8                	sw	a4,12(a5)
    1dc8:	0001                	nop
    1dca:	4472                	lw	s0,28(sp)
    1dcc:	6105                	addi	sp,sp,32
    1dce:	8082                	ret

00001dd0 <TIM_TimeBaseInit>:
    1dd0:	7179                	addi	sp,sp,-48
    1dd2:	d622                	sw	s0,44(sp)
    1dd4:	1800                	addi	s0,sp,48
    1dd6:	fca42e23          	sw	a0,-36(s0)
    1dda:	fcb42c23          	sw	a1,-40(s0)
    1dde:	fe041723          	sh	zero,-18(s0)
    1de2:	fdc42783          	lw	a5,-36(s0)
    1de6:	239e                	lhu	a5,0(a5)
    1de8:	fef41723          	sh	a5,-18(s0)
    1dec:	fdc42703          	lw	a4,-36(s0)
    1df0:	400137b7          	lui	a5,0x40013
    1df4:	c0078793          	addi	a5,a5,-1024 # 40012c00 <_eusrstack+0x2000ac00>
    1df8:	06f70663          	beq	a4,a5,1e64 <TIM_TimeBaseInit+0x94>
    1dfc:	fdc42703          	lw	a4,-36(s0)
    1e00:	400007b7          	lui	a5,0x40000
    1e04:	06f70063          	beq	a4,a5,1e64 <TIM_TimeBaseInit+0x94>
    1e08:	fdc42703          	lw	a4,-36(s0)
    1e0c:	400007b7          	lui	a5,0x40000
    1e10:	40078793          	addi	a5,a5,1024 # 40000400 <_eusrstack+0x1fff8400>
    1e14:	04f70863          	beq	a4,a5,1e64 <TIM_TimeBaseInit+0x94>
    1e18:	fdc42703          	lw	a4,-36(s0)
    1e1c:	400017b7          	lui	a5,0x40001
    1e20:	80078793          	addi	a5,a5,-2048 # 40000800 <_eusrstack+0x1fff8800>
    1e24:	04f70063          	beq	a4,a5,1e64 <TIM_TimeBaseInit+0x94>
    1e28:	fdc42703          	lw	a4,-36(s0)
    1e2c:	400017b7          	lui	a5,0x40001
    1e30:	c0078793          	addi	a5,a5,-1024 # 40000c00 <_eusrstack+0x1fff8c00>
    1e34:	02f70863          	beq	a4,a5,1e64 <TIM_TimeBaseInit+0x94>
    1e38:	fdc42703          	lw	a4,-36(s0)
    1e3c:	400137b7          	lui	a5,0x40013
    1e40:	40078793          	addi	a5,a5,1024 # 40013400 <_eusrstack+0x2000b400>
    1e44:	02f70063          	beq	a4,a5,1e64 <TIM_TimeBaseInit+0x94>
    1e48:	fdc42703          	lw	a4,-36(s0)
    1e4c:	400157b7          	lui	a5,0x40015
    1e50:	c0078793          	addi	a5,a5,-1024 # 40014c00 <_eusrstack+0x2000cc00>
    1e54:	00f70863          	beq	a4,a5,1e64 <TIM_TimeBaseInit+0x94>
    1e58:	fdc42703          	lw	a4,-36(s0)
    1e5c:	400157b7          	lui	a5,0x40015
    1e60:	02f71063          	bne	a4,a5,1e80 <TIM_TimeBaseInit+0xb0>
    1e64:	fee45783          	lhu	a5,-18(s0)
    1e68:	f8f7f793          	andi	a5,a5,-113
    1e6c:	fef41723          	sh	a5,-18(s0)
    1e70:	fd842783          	lw	a5,-40(s0)
    1e74:	23ba                	lhu	a4,2(a5)
    1e76:	fee45783          	lhu	a5,-18(s0)
    1e7a:	8fd9                	or	a5,a5,a4
    1e7c:	fef41723          	sh	a5,-18(s0)
    1e80:	fdc42703          	lw	a4,-36(s0)
    1e84:	400017b7          	lui	a5,0x40001
    1e88:	02f70863          	beq	a4,a5,1eb8 <TIM_TimeBaseInit+0xe8>
    1e8c:	fdc42703          	lw	a4,-36(s0)
    1e90:	400017b7          	lui	a5,0x40001
    1e94:	40078793          	addi	a5,a5,1024 # 40001400 <_eusrstack+0x1fff9400>
    1e98:	02f70063          	beq	a4,a5,1eb8 <TIM_TimeBaseInit+0xe8>
    1e9c:	fee45783          	lhu	a5,-18(s0)
    1ea0:	cff7f793          	andi	a5,a5,-769
    1ea4:	fef41723          	sh	a5,-18(s0)
    1ea8:	fd842783          	lw	a5,-40(s0)
    1eac:	23fa                	lhu	a4,6(a5)
    1eae:	fee45783          	lhu	a5,-18(s0)
    1eb2:	8fd9                	or	a5,a5,a4
    1eb4:	fef41723          	sh	a5,-18(s0)
    1eb8:	fdc42783          	lw	a5,-36(s0)
    1ebc:	fee45703          	lhu	a4,-18(s0)
    1ec0:	a39a                	sh	a4,0(a5)
    1ec2:	fd842783          	lw	a5,-40(s0)
    1ec6:	23da                	lhu	a4,4(a5)
    1ec8:	fdc42783          	lw	a5,-36(s0)
    1ecc:	b7da                	sh	a4,44(a5)
    1ece:	fd842783          	lw	a5,-40(s0)
    1ed2:	239a                	lhu	a4,0(a5)
    1ed4:	fdc42783          	lw	a5,-36(s0)
    1ed8:	b79a                	sh	a4,40(a5)
    1eda:	fdc42703          	lw	a4,-36(s0)
    1ede:	400137b7          	lui	a5,0x40013
    1ee2:	c0078793          	addi	a5,a5,-1024 # 40012c00 <_eusrstack+0x2000ac00>
    1ee6:	02f70863          	beq	a4,a5,1f16 <TIM_TimeBaseInit+0x146>
    1eea:	fdc42703          	lw	a4,-36(s0)
    1eee:	400137b7          	lui	a5,0x40013
    1ef2:	40078793          	addi	a5,a5,1024 # 40013400 <_eusrstack+0x2000b400>
    1ef6:	02f70063          	beq	a4,a5,1f16 <TIM_TimeBaseInit+0x146>
    1efa:	fdc42703          	lw	a4,-36(s0)
    1efe:	400157b7          	lui	a5,0x40015
    1f02:	c0078793          	addi	a5,a5,-1024 # 40014c00 <_eusrstack+0x2000cc00>
    1f06:	00f70863          	beq	a4,a5,1f16 <TIM_TimeBaseInit+0x146>
    1f0a:	fdc42703          	lw	a4,-36(s0)
    1f0e:	400157b7          	lui	a5,0x40015
    1f12:	00f71b63          	bne	a4,a5,1f28 <TIM_TimeBaseInit+0x158>
    1f16:	fd842783          	lw	a5,-40(s0)
    1f1a:	279c                	lbu	a5,8(a5)
    1f1c:	01079713          	slli	a4,a5,0x10
    1f20:	8341                	srli	a4,a4,0x10
    1f22:	fdc42783          	lw	a5,-36(s0)
    1f26:	bb9a                	sh	a4,48(a5)
    1f28:	fdc42783          	lw	a5,-36(s0)
    1f2c:	4705                	li	a4,1
    1f2e:	abda                	sh	a4,20(a5)
    1f30:	0001                	nop
    1f32:	5432                	lw	s0,44(sp)
    1f34:	6145                	addi	sp,sp,48
    1f36:	8082                	ret

00001f38 <TIM_OC1Init>:
    1f38:	7179                	addi	sp,sp,-48
    1f3a:	d622                	sw	s0,44(sp)
    1f3c:	1800                	addi	s0,sp,48
    1f3e:	fca42e23          	sw	a0,-36(s0)
    1f42:	fcb42c23          	sw	a1,-40(s0)
    1f46:	fe041523          	sh	zero,-22(s0)
    1f4a:	fe041723          	sh	zero,-18(s0)
    1f4e:	fe041623          	sh	zero,-20(s0)
    1f52:	fdc42783          	lw	a5,-36(s0)
    1f56:	339e                	lhu	a5,32(a5)
    1f58:	07c2                	slli	a5,a5,0x10
    1f5a:	83c1                	srli	a5,a5,0x10
    1f5c:	9bf9                	andi	a5,a5,-2
    1f5e:	01079713          	slli	a4,a5,0x10
    1f62:	8341                	srli	a4,a4,0x10
    1f64:	fdc42783          	lw	a5,-36(s0)
    1f68:	b39a                	sh	a4,32(a5)
    1f6a:	fdc42783          	lw	a5,-36(s0)
    1f6e:	339e                	lhu	a5,32(a5)
    1f70:	fef41723          	sh	a5,-18(s0)
    1f74:	fdc42783          	lw	a5,-36(s0)
    1f78:	23de                	lhu	a5,4(a5)
    1f7a:	fef41623          	sh	a5,-20(s0)
    1f7e:	fdc42783          	lw	a5,-36(s0)
    1f82:	2f9e                	lhu	a5,24(a5)
    1f84:	fef41523          	sh	a5,-22(s0)
    1f88:	fea45783          	lhu	a5,-22(s0)
    1f8c:	f8f7f793          	andi	a5,a5,-113
    1f90:	fef41523          	sh	a5,-22(s0)
    1f94:	fea45783          	lhu	a5,-22(s0)
    1f98:	9bf1                	andi	a5,a5,-4
    1f9a:	fef41523          	sh	a5,-22(s0)
    1f9e:	fd842783          	lw	a5,-40(s0)
    1fa2:	239a                	lhu	a4,0(a5)
    1fa4:	fea45783          	lhu	a5,-22(s0)
    1fa8:	8fd9                	or	a5,a5,a4
    1faa:	fef41523          	sh	a5,-22(s0)
    1fae:	fee45783          	lhu	a5,-18(s0)
    1fb2:	9bf5                	andi	a5,a5,-3
    1fb4:	fef41723          	sh	a5,-18(s0)
    1fb8:	fd842783          	lw	a5,-40(s0)
    1fbc:	279a                	lhu	a4,8(a5)
    1fbe:	fee45783          	lhu	a5,-18(s0)
    1fc2:	8fd9                	or	a5,a5,a4
    1fc4:	fef41723          	sh	a5,-18(s0)
    1fc8:	fd842783          	lw	a5,-40(s0)
    1fcc:	23ba                	lhu	a4,2(a5)
    1fce:	fee45783          	lhu	a5,-18(s0)
    1fd2:	8fd9                	or	a5,a5,a4
    1fd4:	fef41723          	sh	a5,-18(s0)
    1fd8:	fdc42703          	lw	a4,-36(s0)
    1fdc:	400137b7          	lui	a5,0x40013
    1fe0:	c0078793          	addi	a5,a5,-1024 # 40012c00 <_eusrstack+0x2000ac00>
    1fe4:	02f70863          	beq	a4,a5,2014 <TIM_OC1Init+0xdc>
    1fe8:	fdc42703          	lw	a4,-36(s0)
    1fec:	400137b7          	lui	a5,0x40013
    1ff0:	40078793          	addi	a5,a5,1024 # 40013400 <_eusrstack+0x2000b400>
    1ff4:	02f70063          	beq	a4,a5,2014 <TIM_OC1Init+0xdc>
    1ff8:	fdc42703          	lw	a4,-36(s0)
    1ffc:	400157b7          	lui	a5,0x40015
    2000:	c0078793          	addi	a5,a5,-1024 # 40014c00 <_eusrstack+0x2000cc00>
    2004:	00f70863          	beq	a4,a5,2014 <TIM_OC1Init+0xdc>
    2008:	fdc42703          	lw	a4,-36(s0)
    200c:	400157b7          	lui	a5,0x40015
    2010:	06f71863          	bne	a4,a5,2080 <TIM_OC1Init+0x148>
    2014:	fee45783          	lhu	a5,-18(s0)
    2018:	9bdd                	andi	a5,a5,-9
    201a:	fef41723          	sh	a5,-18(s0)
    201e:	fd842783          	lw	a5,-40(s0)
    2022:	27ba                	lhu	a4,10(a5)
    2024:	fee45783          	lhu	a5,-18(s0)
    2028:	8fd9                	or	a5,a5,a4
    202a:	fef41723          	sh	a5,-18(s0)
    202e:	fee45783          	lhu	a5,-18(s0)
    2032:	9bed                	andi	a5,a5,-5
    2034:	fef41723          	sh	a5,-18(s0)
    2038:	fd842783          	lw	a5,-40(s0)
    203c:	23da                	lhu	a4,4(a5)
    203e:	fee45783          	lhu	a5,-18(s0)
    2042:	8fd9                	or	a5,a5,a4
    2044:	fef41723          	sh	a5,-18(s0)
    2048:	fec45783          	lhu	a5,-20(s0)
    204c:	eff7f793          	andi	a5,a5,-257
    2050:	fef41623          	sh	a5,-20(s0)
    2054:	fec45783          	lhu	a5,-20(s0)
    2058:	dff7f793          	andi	a5,a5,-513
    205c:	fef41623          	sh	a5,-20(s0)
    2060:	fd842783          	lw	a5,-40(s0)
    2064:	27da                	lhu	a4,12(a5)
    2066:	fec45783          	lhu	a5,-20(s0)
    206a:	8fd9                	or	a5,a5,a4
    206c:	fef41623          	sh	a5,-20(s0)
    2070:	fd842783          	lw	a5,-40(s0)
    2074:	27fa                	lhu	a4,14(a5)
    2076:	fec45783          	lhu	a5,-20(s0)
    207a:	8fd9                	or	a5,a5,a4
    207c:	fef41623          	sh	a5,-20(s0)
    2080:	fdc42783          	lw	a5,-36(s0)
    2084:	fec45703          	lhu	a4,-20(s0)
    2088:	a3da                	sh	a4,4(a5)
    208a:	fdc42783          	lw	a5,-36(s0)
    208e:	fea45703          	lhu	a4,-22(s0)
    2092:	af9a                	sh	a4,24(a5)
    2094:	fd842783          	lw	a5,-40(s0)
    2098:	23fa                	lhu	a4,6(a5)
    209a:	fdc42783          	lw	a5,-36(s0)
    209e:	bbda                	sh	a4,52(a5)
    20a0:	fdc42783          	lw	a5,-36(s0)
    20a4:	fee45703          	lhu	a4,-18(s0)
    20a8:	b39a                	sh	a4,32(a5)
    20aa:	0001                	nop
    20ac:	5432                	lw	s0,44(sp)
    20ae:	6145                	addi	sp,sp,48
    20b0:	8082                	ret

000020b2 <TIM_OC2Init>:
    20b2:	7179                	addi	sp,sp,-48
    20b4:	d622                	sw	s0,44(sp)
    20b6:	1800                	addi	s0,sp,48
    20b8:	fca42e23          	sw	a0,-36(s0)
    20bc:	fcb42c23          	sw	a1,-40(s0)
    20c0:	fe041523          	sh	zero,-22(s0)
    20c4:	fe041723          	sh	zero,-18(s0)
    20c8:	fe041623          	sh	zero,-20(s0)
    20cc:	fdc42783          	lw	a5,-36(s0)
    20d0:	339e                	lhu	a5,32(a5)
    20d2:	07c2                	slli	a5,a5,0x10
    20d4:	83c1                	srli	a5,a5,0x10
    20d6:	9bbd                	andi	a5,a5,-17
    20d8:	01079713          	slli	a4,a5,0x10
    20dc:	8341                	srli	a4,a4,0x10
    20de:	fdc42783          	lw	a5,-36(s0)
    20e2:	b39a                	sh	a4,32(a5)
    20e4:	fdc42783          	lw	a5,-36(s0)
    20e8:	339e                	lhu	a5,32(a5)
    20ea:	fef41723          	sh	a5,-18(s0)
    20ee:	fdc42783          	lw	a5,-36(s0)
    20f2:	23de                	lhu	a5,4(a5)
    20f4:	fef41623          	sh	a5,-20(s0)
    20f8:	fdc42783          	lw	a5,-36(s0)
    20fc:	2f9e                	lhu	a5,24(a5)
    20fe:	fef41523          	sh	a5,-22(s0)
    2102:	fea45703          	lhu	a4,-22(s0)
    2106:	77e5                	lui	a5,0xffff9
    2108:	17fd                	addi	a5,a5,-1
    210a:	8ff9                	and	a5,a5,a4
    210c:	fef41523          	sh	a5,-22(s0)
    2110:	fea45783          	lhu	a5,-22(s0)
    2114:	cff7f793          	andi	a5,a5,-769
    2118:	fef41523          	sh	a5,-22(s0)
    211c:	fd842783          	lw	a5,-40(s0)
    2120:	239e                	lhu	a5,0(a5)
    2122:	07a2                	slli	a5,a5,0x8
    2124:	01079713          	slli	a4,a5,0x10
    2128:	8341                	srli	a4,a4,0x10
    212a:	fea45783          	lhu	a5,-22(s0)
    212e:	8fd9                	or	a5,a5,a4
    2130:	fef41523          	sh	a5,-22(s0)
    2134:	fee45783          	lhu	a5,-18(s0)
    2138:	fdf7f793          	andi	a5,a5,-33
    213c:	fef41723          	sh	a5,-18(s0)
    2140:	fd842783          	lw	a5,-40(s0)
    2144:	279e                	lhu	a5,8(a5)
    2146:	0792                	slli	a5,a5,0x4
    2148:	01079713          	slli	a4,a5,0x10
    214c:	8341                	srli	a4,a4,0x10
    214e:	fee45783          	lhu	a5,-18(s0)
    2152:	8fd9                	or	a5,a5,a4
    2154:	fef41723          	sh	a5,-18(s0)
    2158:	fd842783          	lw	a5,-40(s0)
    215c:	23be                	lhu	a5,2(a5)
    215e:	0792                	slli	a5,a5,0x4
    2160:	01079713          	slli	a4,a5,0x10
    2164:	8341                	srli	a4,a4,0x10
    2166:	fee45783          	lhu	a5,-18(s0)
    216a:	8fd9                	or	a5,a5,a4
    216c:	fef41723          	sh	a5,-18(s0)
    2170:	fdc42703          	lw	a4,-36(s0)
    2174:	400137b7          	lui	a5,0x40013
    2178:	c0078793          	addi	a5,a5,-1024 # 40012c00 <_eusrstack+0x2000ac00>
    217c:	02f70863          	beq	a4,a5,21ac <TIM_OC2Init+0xfa>
    2180:	fdc42703          	lw	a4,-36(s0)
    2184:	400137b7          	lui	a5,0x40013
    2188:	40078793          	addi	a5,a5,1024 # 40013400 <_eusrstack+0x2000b400>
    218c:	02f70063          	beq	a4,a5,21ac <TIM_OC2Init+0xfa>
    2190:	fdc42703          	lw	a4,-36(s0)
    2194:	400157b7          	lui	a5,0x40015
    2198:	c0078793          	addi	a5,a5,-1024 # 40014c00 <_eusrstack+0x2000cc00>
    219c:	00f70863          	beq	a4,a5,21ac <TIM_OC2Init+0xfa>
    21a0:	fdc42703          	lw	a4,-36(s0)
    21a4:	400157b7          	lui	a5,0x40015
    21a8:	08f71c63          	bne	a4,a5,2240 <TIM_OC2Init+0x18e>
    21ac:	fee45783          	lhu	a5,-18(s0)
    21b0:	f7f7f793          	andi	a5,a5,-129
    21b4:	fef41723          	sh	a5,-18(s0)
    21b8:	fd842783          	lw	a5,-40(s0)
    21bc:	27be                	lhu	a5,10(a5)
    21be:	0792                	slli	a5,a5,0x4
    21c0:	01079713          	slli	a4,a5,0x10
    21c4:	8341                	srli	a4,a4,0x10
    21c6:	fee45783          	lhu	a5,-18(s0)
    21ca:	8fd9                	or	a5,a5,a4
    21cc:	fef41723          	sh	a5,-18(s0)
    21d0:	fee45783          	lhu	a5,-18(s0)
    21d4:	fbf7f793          	andi	a5,a5,-65
    21d8:	fef41723          	sh	a5,-18(s0)
    21dc:	fd842783          	lw	a5,-40(s0)
    21e0:	23de                	lhu	a5,4(a5)
    21e2:	0792                	slli	a5,a5,0x4
    21e4:	01079713          	slli	a4,a5,0x10
    21e8:	8341                	srli	a4,a4,0x10
    21ea:	fee45783          	lhu	a5,-18(s0)
    21ee:	8fd9                	or	a5,a5,a4
    21f0:	fef41723          	sh	a5,-18(s0)
    21f4:	fec45783          	lhu	a5,-20(s0)
    21f8:	bff7f793          	andi	a5,a5,-1025
    21fc:	fef41623          	sh	a5,-20(s0)
    2200:	fec45703          	lhu	a4,-20(s0)
    2204:	77fd                	lui	a5,0xfffff
    2206:	7ff78793          	addi	a5,a5,2047 # fffff7ff <_eusrstack+0xdfff77ff>
    220a:	8ff9                	and	a5,a5,a4
    220c:	fef41623          	sh	a5,-20(s0)
    2210:	fd842783          	lw	a5,-40(s0)
    2214:	27de                	lhu	a5,12(a5)
    2216:	078a                	slli	a5,a5,0x2
    2218:	01079713          	slli	a4,a5,0x10
    221c:	8341                	srli	a4,a4,0x10
    221e:	fec45783          	lhu	a5,-20(s0)
    2222:	8fd9                	or	a5,a5,a4
    2224:	fef41623          	sh	a5,-20(s0)
    2228:	fd842783          	lw	a5,-40(s0)
    222c:	27fe                	lhu	a5,14(a5)
    222e:	078a                	slli	a5,a5,0x2
    2230:	01079713          	slli	a4,a5,0x10
    2234:	8341                	srli	a4,a4,0x10
    2236:	fec45783          	lhu	a5,-20(s0)
    223a:	8fd9                	or	a5,a5,a4
    223c:	fef41623          	sh	a5,-20(s0)
    2240:	fdc42783          	lw	a5,-36(s0)
    2244:	fec45703          	lhu	a4,-20(s0)
    2248:	a3da                	sh	a4,4(a5)
    224a:	fdc42783          	lw	a5,-36(s0)
    224e:	fea45703          	lhu	a4,-22(s0)
    2252:	af9a                	sh	a4,24(a5)
    2254:	fd842783          	lw	a5,-40(s0)
    2258:	23fa                	lhu	a4,6(a5)
    225a:	fdc42783          	lw	a5,-36(s0)
    225e:	bf9a                	sh	a4,56(a5)
    2260:	fdc42783          	lw	a5,-36(s0)
    2264:	fee45703          	lhu	a4,-18(s0)
    2268:	b39a                	sh	a4,32(a5)
    226a:	0001                	nop
    226c:	5432                	lw	s0,44(sp)
    226e:	6145                	addi	sp,sp,48
    2270:	8082                	ret

00002272 <TIM_OC3Init>:
    2272:	7179                	addi	sp,sp,-48
    2274:	d622                	sw	s0,44(sp)
    2276:	1800                	addi	s0,sp,48
    2278:	fca42e23          	sw	a0,-36(s0)
    227c:	fcb42c23          	sw	a1,-40(s0)
    2280:	fe041523          	sh	zero,-22(s0)
    2284:	fe041723          	sh	zero,-18(s0)
    2288:	fe041623          	sh	zero,-20(s0)
    228c:	fdc42783          	lw	a5,-36(s0)
    2290:	339e                	lhu	a5,32(a5)
    2292:	07c2                	slli	a5,a5,0x10
    2294:	83c1                	srli	a5,a5,0x10
    2296:	eff7f793          	andi	a5,a5,-257
    229a:	01079713          	slli	a4,a5,0x10
    229e:	8341                	srli	a4,a4,0x10
    22a0:	fdc42783          	lw	a5,-36(s0)
    22a4:	b39a                	sh	a4,32(a5)
    22a6:	fdc42783          	lw	a5,-36(s0)
    22aa:	339e                	lhu	a5,32(a5)
    22ac:	fef41723          	sh	a5,-18(s0)
    22b0:	fdc42783          	lw	a5,-36(s0)
    22b4:	23de                	lhu	a5,4(a5)
    22b6:	fef41623          	sh	a5,-20(s0)
    22ba:	fdc42783          	lw	a5,-36(s0)
    22be:	2fde                	lhu	a5,28(a5)
    22c0:	fef41523          	sh	a5,-22(s0)
    22c4:	fea45783          	lhu	a5,-22(s0)
    22c8:	f8f7f793          	andi	a5,a5,-113
    22cc:	fef41523          	sh	a5,-22(s0)
    22d0:	fea45783          	lhu	a5,-22(s0)
    22d4:	9bf1                	andi	a5,a5,-4
    22d6:	fef41523          	sh	a5,-22(s0)
    22da:	fd842783          	lw	a5,-40(s0)
    22de:	239a                	lhu	a4,0(a5)
    22e0:	fea45783          	lhu	a5,-22(s0)
    22e4:	8fd9                	or	a5,a5,a4
    22e6:	fef41523          	sh	a5,-22(s0)
    22ea:	fee45783          	lhu	a5,-18(s0)
    22ee:	dff7f793          	andi	a5,a5,-513
    22f2:	fef41723          	sh	a5,-18(s0)
    22f6:	fd842783          	lw	a5,-40(s0)
    22fa:	279e                	lhu	a5,8(a5)
    22fc:	07a2                	slli	a5,a5,0x8
    22fe:	01079713          	slli	a4,a5,0x10
    2302:	8341                	srli	a4,a4,0x10
    2304:	fee45783          	lhu	a5,-18(s0)
    2308:	8fd9                	or	a5,a5,a4
    230a:	fef41723          	sh	a5,-18(s0)
    230e:	fd842783          	lw	a5,-40(s0)
    2312:	23be                	lhu	a5,2(a5)
    2314:	07a2                	slli	a5,a5,0x8
    2316:	01079713          	slli	a4,a5,0x10
    231a:	8341                	srli	a4,a4,0x10
    231c:	fee45783          	lhu	a5,-18(s0)
    2320:	8fd9                	or	a5,a5,a4
    2322:	fef41723          	sh	a5,-18(s0)
    2326:	fdc42703          	lw	a4,-36(s0)
    232a:	400137b7          	lui	a5,0x40013
    232e:	c0078793          	addi	a5,a5,-1024 # 40012c00 <_eusrstack+0x2000ac00>
    2332:	02f70863          	beq	a4,a5,2362 <TIM_OC3Init+0xf0>
    2336:	fdc42703          	lw	a4,-36(s0)
    233a:	400137b7          	lui	a5,0x40013
    233e:	40078793          	addi	a5,a5,1024 # 40013400 <_eusrstack+0x2000b400>
    2342:	02f70063          	beq	a4,a5,2362 <TIM_OC3Init+0xf0>
    2346:	fdc42703          	lw	a4,-36(s0)
    234a:	400157b7          	lui	a5,0x40015
    234e:	c0078793          	addi	a5,a5,-1024 # 40014c00 <_eusrstack+0x2000cc00>
    2352:	00f70863          	beq	a4,a5,2362 <TIM_OC3Init+0xf0>
    2356:	fdc42703          	lw	a4,-36(s0)
    235a:	400157b7          	lui	a5,0x40015
    235e:	08f71e63          	bne	a4,a5,23fa <TIM_OC3Init+0x188>
    2362:	fee45703          	lhu	a4,-18(s0)
    2366:	77fd                	lui	a5,0xfffff
    2368:	7ff78793          	addi	a5,a5,2047 # fffff7ff <_eusrstack+0xdfff77ff>
    236c:	8ff9                	and	a5,a5,a4
    236e:	fef41723          	sh	a5,-18(s0)
    2372:	fd842783          	lw	a5,-40(s0)
    2376:	27be                	lhu	a5,10(a5)
    2378:	07a2                	slli	a5,a5,0x8
    237a:	01079713          	slli	a4,a5,0x10
    237e:	8341                	srli	a4,a4,0x10
    2380:	fee45783          	lhu	a5,-18(s0)
    2384:	8fd9                	or	a5,a5,a4
    2386:	fef41723          	sh	a5,-18(s0)
    238a:	fee45783          	lhu	a5,-18(s0)
    238e:	bff7f793          	andi	a5,a5,-1025
    2392:	fef41723          	sh	a5,-18(s0)
    2396:	fd842783          	lw	a5,-40(s0)
    239a:	23de                	lhu	a5,4(a5)
    239c:	07a2                	slli	a5,a5,0x8
    239e:	01079713          	slli	a4,a5,0x10
    23a2:	8341                	srli	a4,a4,0x10
    23a4:	fee45783          	lhu	a5,-18(s0)
    23a8:	8fd9                	or	a5,a5,a4
    23aa:	fef41723          	sh	a5,-18(s0)
    23ae:	fec45703          	lhu	a4,-20(s0)
    23b2:	77fd                	lui	a5,0xfffff
    23b4:	17fd                	addi	a5,a5,-1
    23b6:	8ff9                	and	a5,a5,a4
    23b8:	fef41623          	sh	a5,-20(s0)
    23bc:	fec45703          	lhu	a4,-20(s0)
    23c0:	77f9                	lui	a5,0xffffe
    23c2:	17fd                	addi	a5,a5,-1
    23c4:	8ff9                	and	a5,a5,a4
    23c6:	fef41623          	sh	a5,-20(s0)
    23ca:	fd842783          	lw	a5,-40(s0)
    23ce:	27de                	lhu	a5,12(a5)
    23d0:	0792                	slli	a5,a5,0x4
    23d2:	01079713          	slli	a4,a5,0x10
    23d6:	8341                	srli	a4,a4,0x10
    23d8:	fec45783          	lhu	a5,-20(s0)
    23dc:	8fd9                	or	a5,a5,a4
    23de:	fef41623          	sh	a5,-20(s0)
    23e2:	fd842783          	lw	a5,-40(s0)
    23e6:	27fe                	lhu	a5,14(a5)
    23e8:	0792                	slli	a5,a5,0x4
    23ea:	01079713          	slli	a4,a5,0x10
    23ee:	8341                	srli	a4,a4,0x10
    23f0:	fec45783          	lhu	a5,-20(s0)
    23f4:	8fd9                	or	a5,a5,a4
    23f6:	fef41623          	sh	a5,-20(s0)
    23fa:	fdc42783          	lw	a5,-36(s0)
    23fe:	fec45703          	lhu	a4,-20(s0)
    2402:	a3da                	sh	a4,4(a5)
    2404:	fdc42783          	lw	a5,-36(s0)
    2408:	fea45703          	lhu	a4,-22(s0)
    240c:	afda                	sh	a4,28(a5)
    240e:	fd842783          	lw	a5,-40(s0)
    2412:	23fa                	lhu	a4,6(a5)
    2414:	fdc42783          	lw	a5,-36(s0)
    2418:	bfda                	sh	a4,60(a5)
    241a:	fdc42783          	lw	a5,-36(s0)
    241e:	fee45703          	lhu	a4,-18(s0)
    2422:	b39a                	sh	a4,32(a5)
    2424:	0001                	nop
    2426:	5432                	lw	s0,44(sp)
    2428:	6145                	addi	sp,sp,48
    242a:	8082                	ret

0000242c <TIM_OC4Init>:
    242c:	7179                	addi	sp,sp,-48
    242e:	d622                	sw	s0,44(sp)
    2430:	1800                	addi	s0,sp,48
    2432:	fca42e23          	sw	a0,-36(s0)
    2436:	fcb42c23          	sw	a1,-40(s0)
    243a:	fe041623          	sh	zero,-20(s0)
    243e:	fe041523          	sh	zero,-22(s0)
    2442:	fe041723          	sh	zero,-18(s0)
    2446:	fdc42783          	lw	a5,-36(s0)
    244a:	339e                	lhu	a5,32(a5)
    244c:	01079713          	slli	a4,a5,0x10
    2450:	8341                	srli	a4,a4,0x10
    2452:	77fd                	lui	a5,0xfffff
    2454:	17fd                	addi	a5,a5,-1
    2456:	8ff9                	and	a5,a5,a4
    2458:	01079713          	slli	a4,a5,0x10
    245c:	8341                	srli	a4,a4,0x10
    245e:	fdc42783          	lw	a5,-36(s0)
    2462:	b39a                	sh	a4,32(a5)
    2464:	fdc42783          	lw	a5,-36(s0)
    2468:	339e                	lhu	a5,32(a5)
    246a:	fef41523          	sh	a5,-22(s0)
    246e:	fdc42783          	lw	a5,-36(s0)
    2472:	23de                	lhu	a5,4(a5)
    2474:	fef41723          	sh	a5,-18(s0)
    2478:	fdc42783          	lw	a5,-36(s0)
    247c:	2fde                	lhu	a5,28(a5)
    247e:	fef41623          	sh	a5,-20(s0)
    2482:	fec45703          	lhu	a4,-20(s0)
    2486:	77e5                	lui	a5,0xffff9
    2488:	17fd                	addi	a5,a5,-1
    248a:	8ff9                	and	a5,a5,a4
    248c:	fef41623          	sh	a5,-20(s0)
    2490:	fec45783          	lhu	a5,-20(s0)
    2494:	cff7f793          	andi	a5,a5,-769
    2498:	fef41623          	sh	a5,-20(s0)
    249c:	fd842783          	lw	a5,-40(s0)
    24a0:	239e                	lhu	a5,0(a5)
    24a2:	07a2                	slli	a5,a5,0x8
    24a4:	01079713          	slli	a4,a5,0x10
    24a8:	8341                	srli	a4,a4,0x10
    24aa:	fec45783          	lhu	a5,-20(s0)
    24ae:	8fd9                	or	a5,a5,a4
    24b0:	fef41623          	sh	a5,-20(s0)
    24b4:	fea45703          	lhu	a4,-22(s0)
    24b8:	77f9                	lui	a5,0xffffe
    24ba:	17fd                	addi	a5,a5,-1
    24bc:	8ff9                	and	a5,a5,a4
    24be:	fef41523          	sh	a5,-22(s0)
    24c2:	fd842783          	lw	a5,-40(s0)
    24c6:	279e                	lhu	a5,8(a5)
    24c8:	07b2                	slli	a5,a5,0xc
    24ca:	01079713          	slli	a4,a5,0x10
    24ce:	8341                	srli	a4,a4,0x10
    24d0:	fea45783          	lhu	a5,-22(s0)
    24d4:	8fd9                	or	a5,a5,a4
    24d6:	fef41523          	sh	a5,-22(s0)
    24da:	fd842783          	lw	a5,-40(s0)
    24de:	23be                	lhu	a5,2(a5)
    24e0:	07b2                	slli	a5,a5,0xc
    24e2:	01079713          	slli	a4,a5,0x10
    24e6:	8341                	srli	a4,a4,0x10
    24e8:	fea45783          	lhu	a5,-22(s0)
    24ec:	8fd9                	or	a5,a5,a4
    24ee:	fef41523          	sh	a5,-22(s0)
    24f2:	fdc42703          	lw	a4,-36(s0)
    24f6:	400137b7          	lui	a5,0x40013
    24fa:	c0078793          	addi	a5,a5,-1024 # 40012c00 <_eusrstack+0x2000ac00>
    24fe:	02f70863          	beq	a4,a5,252e <TIM_OC4Init+0x102>
    2502:	fdc42703          	lw	a4,-36(s0)
    2506:	400137b7          	lui	a5,0x40013
    250a:	40078793          	addi	a5,a5,1024 # 40013400 <_eusrstack+0x2000b400>
    250e:	02f70063          	beq	a4,a5,252e <TIM_OC4Init+0x102>
    2512:	fdc42703          	lw	a4,-36(s0)
    2516:	400157b7          	lui	a5,0x40015
    251a:	c0078793          	addi	a5,a5,-1024 # 40014c00 <_eusrstack+0x2000cc00>
    251e:	00f70863          	beq	a4,a5,252e <TIM_OC4Init+0x102>
    2522:	fdc42703          	lw	a4,-36(s0)
    2526:	400157b7          	lui	a5,0x40015
    252a:	02f71563          	bne	a4,a5,2554 <TIM_OC4Init+0x128>
    252e:	fee45703          	lhu	a4,-18(s0)
    2532:	77f1                	lui	a5,0xffffc
    2534:	17fd                	addi	a5,a5,-1
    2536:	8ff9                	and	a5,a5,a4
    2538:	fef41723          	sh	a5,-18(s0)
    253c:	fd842783          	lw	a5,-40(s0)
    2540:	27de                	lhu	a5,12(a5)
    2542:	079a                	slli	a5,a5,0x6
    2544:	01079713          	slli	a4,a5,0x10
    2548:	8341                	srli	a4,a4,0x10
    254a:	fee45783          	lhu	a5,-18(s0)
    254e:	8fd9                	or	a5,a5,a4
    2550:	fef41723          	sh	a5,-18(s0)
    2554:	fdc42783          	lw	a5,-36(s0)
    2558:	fee45703          	lhu	a4,-18(s0)
    255c:	a3da                	sh	a4,4(a5)
    255e:	fdc42783          	lw	a5,-36(s0)
    2562:	fec45703          	lhu	a4,-20(s0)
    2566:	afda                	sh	a4,28(a5)
    2568:	fd842783          	lw	a5,-40(s0)
    256c:	23fa                	lhu	a4,6(a5)
    256e:	fdc42783          	lw	a5,-36(s0)
    2572:	04e79023          	sh	a4,64(a5) # ffffc040 <_eusrstack+0xdfff4040>
    2576:	fdc42783          	lw	a5,-36(s0)
    257a:	fea45703          	lhu	a4,-22(s0)
    257e:	b39a                	sh	a4,32(a5)
    2580:	0001                	nop
    2582:	5432                	lw	s0,44(sp)
    2584:	6145                	addi	sp,sp,48
    2586:	8082                	ret

00002588 <TIM_Cmd>:
    2588:	1101                	addi	sp,sp,-32
    258a:	ce22                	sw	s0,28(sp)
    258c:	1000                	addi	s0,sp,32
    258e:	fea42623          	sw	a0,-20(s0)
    2592:	feb42423          	sw	a1,-24(s0)
    2596:	fe842783          	lw	a5,-24(s0)
    259a:	cf99                	beqz	a5,25b8 <TIM_Cmd+0x30>
    259c:	fec42783          	lw	a5,-20(s0)
    25a0:	239e                	lhu	a5,0(a5)
    25a2:	07c2                	slli	a5,a5,0x10
    25a4:	83c1                	srli	a5,a5,0x10
    25a6:	0017e793          	ori	a5,a5,1
    25aa:	01079713          	slli	a4,a5,0x10
    25ae:	8341                	srli	a4,a4,0x10
    25b0:	fec42783          	lw	a5,-20(s0)
    25b4:	a39a                	sh	a4,0(a5)
    25b6:	a829                	j	25d0 <TIM_Cmd+0x48>
    25b8:	fec42783          	lw	a5,-20(s0)
    25bc:	239e                	lhu	a5,0(a5)
    25be:	07c2                	slli	a5,a5,0x10
    25c0:	83c1                	srli	a5,a5,0x10
    25c2:	9bf9                	andi	a5,a5,-2
    25c4:	01079713          	slli	a4,a5,0x10
    25c8:	8341                	srli	a4,a4,0x10
    25ca:	fec42783          	lw	a5,-20(s0)
    25ce:	a39a                	sh	a4,0(a5)
    25d0:	0001                	nop
    25d2:	4472                	lw	s0,28(sp)
    25d4:	6105                	addi	sp,sp,32
    25d6:	8082                	ret

000025d8 <TIM_CtrlPWMOutputs>:
    25d8:	1101                	addi	sp,sp,-32
    25da:	ce22                	sw	s0,28(sp)
    25dc:	1000                	addi	s0,sp,32
    25de:	fea42623          	sw	a0,-20(s0)
    25e2:	feb42423          	sw	a1,-24(s0)
    25e6:	fe842783          	lw	a5,-24(s0)
    25ea:	c395                	beqz	a5,260e <TIM_CtrlPWMOutputs+0x36>
    25ec:	fec42783          	lw	a5,-20(s0)
    25f0:	0447d783          	lhu	a5,68(a5)
    25f4:	01079713          	slli	a4,a5,0x10
    25f8:	8341                	srli	a4,a4,0x10
    25fa:	77e1                	lui	a5,0xffff8
    25fc:	8fd9                	or	a5,a5,a4
    25fe:	01079713          	slli	a4,a5,0x10
    2602:	8341                	srli	a4,a4,0x10
    2604:	fec42783          	lw	a5,-20(s0)
    2608:	04e79223          	sh	a4,68(a5) # ffff8044 <_eusrstack+0xdfff0044>
    260c:	a015                	j	2630 <TIM_CtrlPWMOutputs+0x58>
    260e:	fec42783          	lw	a5,-20(s0)
    2612:	0447d783          	lhu	a5,68(a5)
    2616:	01079713          	slli	a4,a5,0x10
    261a:	8341                	srli	a4,a4,0x10
    261c:	67a1                	lui	a5,0x8
    261e:	17fd                	addi	a5,a5,-1
    2620:	8ff9                	and	a5,a5,a4
    2622:	01079713          	slli	a4,a5,0x10
    2626:	8341                	srli	a4,a4,0x10
    2628:	fec42783          	lw	a5,-20(s0)
    262c:	04e79223          	sh	a4,68(a5) # 8044 <_data_lma+0x1c98>
    2630:	0001                	nop
    2632:	4472                	lw	s0,28(sp)
    2634:	6105                	addi	sp,sp,32
    2636:	8082                	ret

00002638 <TIM_ARRPreloadConfig>:
    2638:	1101                	addi	sp,sp,-32
    263a:	ce22                	sw	s0,28(sp)
    263c:	1000                	addi	s0,sp,32
    263e:	fea42623          	sw	a0,-20(s0)
    2642:	feb42423          	sw	a1,-24(s0)
    2646:	fe842783          	lw	a5,-24(s0)
    264a:	cf99                	beqz	a5,2668 <TIM_ARRPreloadConfig+0x30>
    264c:	fec42783          	lw	a5,-20(s0)
    2650:	239e                	lhu	a5,0(a5)
    2652:	07c2                	slli	a5,a5,0x10
    2654:	83c1                	srli	a5,a5,0x10
    2656:	0807e793          	ori	a5,a5,128
    265a:	01079713          	slli	a4,a5,0x10
    265e:	8341                	srli	a4,a4,0x10
    2660:	fec42783          	lw	a5,-20(s0)
    2664:	a39a                	sh	a4,0(a5)
    2666:	a831                	j	2682 <TIM_ARRPreloadConfig+0x4a>
    2668:	fec42783          	lw	a5,-20(s0)
    266c:	239e                	lhu	a5,0(a5)
    266e:	07c2                	slli	a5,a5,0x10
    2670:	83c1                	srli	a5,a5,0x10
    2672:	f7f7f793          	andi	a5,a5,-129
    2676:	01079713          	slli	a4,a5,0x10
    267a:	8341                	srli	a4,a4,0x10
    267c:	fec42783          	lw	a5,-20(s0)
    2680:	a39a                	sh	a4,0(a5)
    2682:	0001                	nop
    2684:	4472                	lw	s0,28(sp)
    2686:	6105                	addi	sp,sp,32
    2688:	8082                	ret

0000268a <TIM_OC1PreloadConfig>:
    268a:	7179                	addi	sp,sp,-48
    268c:	d622                	sw	s0,44(sp)
    268e:	1800                	addi	s0,sp,48
    2690:	fca42e23          	sw	a0,-36(s0)
    2694:	87ae                	mv	a5,a1
    2696:	fcf41d23          	sh	a5,-38(s0)
    269a:	fe041723          	sh	zero,-18(s0)
    269e:	fdc42783          	lw	a5,-36(s0)
    26a2:	2f9e                	lhu	a5,24(a5)
    26a4:	fef41723          	sh	a5,-18(s0)
    26a8:	fee45783          	lhu	a5,-18(s0)
    26ac:	9bdd                	andi	a5,a5,-9
    26ae:	fef41723          	sh	a5,-18(s0)
    26b2:	fee45703          	lhu	a4,-18(s0)
    26b6:	fda45783          	lhu	a5,-38(s0)
    26ba:	8fd9                	or	a5,a5,a4
    26bc:	fef41723          	sh	a5,-18(s0)
    26c0:	fdc42783          	lw	a5,-36(s0)
    26c4:	fee45703          	lhu	a4,-18(s0)
    26c8:	af9a                	sh	a4,24(a5)
    26ca:	0001                	nop
    26cc:	5432                	lw	s0,44(sp)
    26ce:	6145                	addi	sp,sp,48
    26d0:	8082                	ret

000026d2 <TIM_OC2PreloadConfig>:
    26d2:	7179                	addi	sp,sp,-48
    26d4:	d622                	sw	s0,44(sp)
    26d6:	1800                	addi	s0,sp,48
    26d8:	fca42e23          	sw	a0,-36(s0)
    26dc:	87ae                	mv	a5,a1
    26de:	fcf41d23          	sh	a5,-38(s0)
    26e2:	fe041723          	sh	zero,-18(s0)
    26e6:	fdc42783          	lw	a5,-36(s0)
    26ea:	2f9e                	lhu	a5,24(a5)
    26ec:	fef41723          	sh	a5,-18(s0)
    26f0:	fee45703          	lhu	a4,-18(s0)
    26f4:	77fd                	lui	a5,0xfffff
    26f6:	7ff78793          	addi	a5,a5,2047 # fffff7ff <_eusrstack+0xdfff77ff>
    26fa:	8ff9                	and	a5,a5,a4
    26fc:	fef41723          	sh	a5,-18(s0)
    2700:	fda45783          	lhu	a5,-38(s0)
    2704:	07a2                	slli	a5,a5,0x8
    2706:	01079713          	slli	a4,a5,0x10
    270a:	8341                	srli	a4,a4,0x10
    270c:	fee45783          	lhu	a5,-18(s0)
    2710:	8fd9                	or	a5,a5,a4
    2712:	fef41723          	sh	a5,-18(s0)
    2716:	fdc42783          	lw	a5,-36(s0)
    271a:	fee45703          	lhu	a4,-18(s0)
    271e:	af9a                	sh	a4,24(a5)
    2720:	0001                	nop
    2722:	5432                	lw	s0,44(sp)
    2724:	6145                	addi	sp,sp,48
    2726:	8082                	ret

00002728 <TIM_OC3PreloadConfig>:
    2728:	7179                	addi	sp,sp,-48
    272a:	d622                	sw	s0,44(sp)
    272c:	1800                	addi	s0,sp,48
    272e:	fca42e23          	sw	a0,-36(s0)
    2732:	87ae                	mv	a5,a1
    2734:	fcf41d23          	sh	a5,-38(s0)
    2738:	fe041723          	sh	zero,-18(s0)
    273c:	fdc42783          	lw	a5,-36(s0)
    2740:	2fde                	lhu	a5,28(a5)
    2742:	fef41723          	sh	a5,-18(s0)
    2746:	fee45783          	lhu	a5,-18(s0)
    274a:	9bdd                	andi	a5,a5,-9
    274c:	fef41723          	sh	a5,-18(s0)
    2750:	fee45703          	lhu	a4,-18(s0)
    2754:	fda45783          	lhu	a5,-38(s0)
    2758:	8fd9                	or	a5,a5,a4
    275a:	fef41723          	sh	a5,-18(s0)
    275e:	fdc42783          	lw	a5,-36(s0)
    2762:	fee45703          	lhu	a4,-18(s0)
    2766:	afda                	sh	a4,28(a5)
    2768:	0001                	nop
    276a:	5432                	lw	s0,44(sp)
    276c:	6145                	addi	sp,sp,48
    276e:	8082                	ret

00002770 <TIM_OC4PreloadConfig>:
    2770:	7179                	addi	sp,sp,-48
    2772:	d622                	sw	s0,44(sp)
    2774:	1800                	addi	s0,sp,48
    2776:	fca42e23          	sw	a0,-36(s0)
    277a:	87ae                	mv	a5,a1
    277c:	fcf41d23          	sh	a5,-38(s0)
    2780:	fe041723          	sh	zero,-18(s0)
    2784:	fdc42783          	lw	a5,-36(s0)
    2788:	2fde                	lhu	a5,28(a5)
    278a:	fef41723          	sh	a5,-18(s0)
    278e:	fee45703          	lhu	a4,-18(s0)
    2792:	77fd                	lui	a5,0xfffff
    2794:	7ff78793          	addi	a5,a5,2047 # fffff7ff <_eusrstack+0xdfff77ff>
    2798:	8ff9                	and	a5,a5,a4
    279a:	fef41723          	sh	a5,-18(s0)
    279e:	fda45783          	lhu	a5,-38(s0)
    27a2:	07a2                	slli	a5,a5,0x8
    27a4:	01079713          	slli	a4,a5,0x10
    27a8:	8341                	srli	a4,a4,0x10
    27aa:	fee45783          	lhu	a5,-18(s0)
    27ae:	8fd9                	or	a5,a5,a4
    27b0:	fef41723          	sh	a5,-18(s0)
    27b4:	fdc42783          	lw	a5,-36(s0)
    27b8:	fee45703          	lhu	a4,-18(s0)
    27bc:	afda                	sh	a4,28(a5)
    27be:	0001                	nop
    27c0:	5432                	lw	s0,44(sp)
    27c2:	6145                	addi	sp,sp,48
    27c4:	8082                	ret

000027c6 <TIM_SetCompare1>:
    27c6:	1101                	addi	sp,sp,-32
    27c8:	ce22                	sw	s0,28(sp)
    27ca:	1000                	addi	s0,sp,32
    27cc:	fea42623          	sw	a0,-20(s0)
    27d0:	87ae                	mv	a5,a1
    27d2:	fef41523          	sh	a5,-22(s0)
    27d6:	fec42783          	lw	a5,-20(s0)
    27da:	fea45703          	lhu	a4,-22(s0)
    27de:	bbda                	sh	a4,52(a5)
    27e0:	0001                	nop
    27e2:	4472                	lw	s0,28(sp)
    27e4:	6105                	addi	sp,sp,32
    27e6:	8082                	ret

000027e8 <TIM_SetCompare2>:
    27e8:	1101                	addi	sp,sp,-32
    27ea:	ce22                	sw	s0,28(sp)
    27ec:	1000                	addi	s0,sp,32
    27ee:	fea42623          	sw	a0,-20(s0)
    27f2:	87ae                	mv	a5,a1
    27f4:	fef41523          	sh	a5,-22(s0)
    27f8:	fec42783          	lw	a5,-20(s0)
    27fc:	fea45703          	lhu	a4,-22(s0)
    2800:	bf9a                	sh	a4,56(a5)
    2802:	0001                	nop
    2804:	4472                	lw	s0,28(sp)
    2806:	6105                	addi	sp,sp,32
    2808:	8082                	ret

0000280a <TIM_SetCompare3>:
    280a:	1101                	addi	sp,sp,-32
    280c:	ce22                	sw	s0,28(sp)
    280e:	1000                	addi	s0,sp,32
    2810:	fea42623          	sw	a0,-20(s0)
    2814:	87ae                	mv	a5,a1
    2816:	fef41523          	sh	a5,-22(s0)
    281a:	fec42783          	lw	a5,-20(s0)
    281e:	fea45703          	lhu	a4,-22(s0)
    2822:	bfda                	sh	a4,60(a5)
    2824:	0001                	nop
    2826:	4472                	lw	s0,28(sp)
    2828:	6105                	addi	sp,sp,32
    282a:	8082                	ret

0000282c <TIM_SetCompare4>:
    282c:	1101                	addi	sp,sp,-32
    282e:	ce22                	sw	s0,28(sp)
    2830:	1000                	addi	s0,sp,32
    2832:	fea42623          	sw	a0,-20(s0)
    2836:	87ae                	mv	a5,a1
    2838:	fef41523          	sh	a5,-22(s0)
    283c:	fec42783          	lw	a5,-20(s0)
    2840:	fea45703          	lhu	a4,-22(s0)
    2844:	04e79023          	sh	a4,64(a5)
    2848:	0001                	nop
    284a:	4472                	lw	s0,28(sp)
    284c:	6105                	addi	sp,sp,32
    284e:	8082                	ret

00002850 <USART_Init>:
    2850:	715d                	addi	sp,sp,-80
    2852:	c686                	sw	ra,76(sp)
    2854:	c4a2                	sw	s0,72(sp)
    2856:	0880                	addi	s0,sp,80
    2858:	faa42e23          	sw	a0,-68(s0)
    285c:	fab42c23          	sw	a1,-72(s0)
    2860:	fe042423          	sw	zero,-24(s0)
    2864:	fe042623          	sw	zero,-20(s0)
    2868:	fe042223          	sw	zero,-28(s0)
    286c:	fe042023          	sw	zero,-32(s0)
    2870:	fc042e23          	sw	zero,-36(s0)
    2874:	fbc42783          	lw	a5,-68(s0)
    2878:	fcf42e23          	sw	a5,-36(s0)
    287c:	fbc42783          	lw	a5,-68(s0)
    2880:	2b9e                	lhu	a5,16(a5)
    2882:	07c2                	slli	a5,a5,0x10
    2884:	83c1                	srli	a5,a5,0x10
    2886:	fef42423          	sw	a5,-24(s0)
    288a:	fe842703          	lw	a4,-24(s0)
    288e:	67b5                	lui	a5,0xd
    2890:	17fd                	addi	a5,a5,-1
    2892:	8ff9                	and	a5,a5,a4
    2894:	fef42423          	sw	a5,-24(s0)
    2898:	fb842783          	lw	a5,-72(s0)
    289c:	23fe                	lhu	a5,6(a5)
    289e:	873e                	mv	a4,a5
    28a0:	fe842783          	lw	a5,-24(s0)
    28a4:	8fd9                	or	a5,a5,a4
    28a6:	fef42423          	sw	a5,-24(s0)
    28aa:	fe842783          	lw	a5,-24(s0)
    28ae:	01079713          	slli	a4,a5,0x10
    28b2:	8341                	srli	a4,a4,0x10
    28b4:	fbc42783          	lw	a5,-68(s0)
    28b8:	ab9a                	sh	a4,16(a5)
    28ba:	fbc42783          	lw	a5,-68(s0)
    28be:	27de                	lhu	a5,12(a5)
    28c0:	07c2                	slli	a5,a5,0x10
    28c2:	83c1                	srli	a5,a5,0x10
    28c4:	fef42423          	sw	a5,-24(s0)
    28c8:	fe842703          	lw	a4,-24(s0)
    28cc:	67bd                	lui	a5,0xf
    28ce:	9f378793          	addi	a5,a5,-1549 # e9f3 <_data_lma+0x8647>
    28d2:	8ff9                	and	a5,a5,a4
    28d4:	fef42423          	sw	a5,-24(s0)
    28d8:	fb842783          	lw	a5,-72(s0)
    28dc:	23da                	lhu	a4,4(a5)
    28de:	fb842783          	lw	a5,-72(s0)
    28e2:	279e                	lhu	a5,8(a5)
    28e4:	8fd9                	or	a5,a5,a4
    28e6:	01079713          	slli	a4,a5,0x10
    28ea:	8341                	srli	a4,a4,0x10
    28ec:	fb842783          	lw	a5,-72(s0)
    28f0:	27be                	lhu	a5,10(a5)
    28f2:	8fd9                	or	a5,a5,a4
    28f4:	07c2                	slli	a5,a5,0x10
    28f6:	83c1                	srli	a5,a5,0x10
    28f8:	873e                	mv	a4,a5
    28fa:	fe842783          	lw	a5,-24(s0)
    28fe:	8fd9                	or	a5,a5,a4
    2900:	fef42423          	sw	a5,-24(s0)
    2904:	fe842783          	lw	a5,-24(s0)
    2908:	01079713          	slli	a4,a5,0x10
    290c:	8341                	srli	a4,a4,0x10
    290e:	fbc42783          	lw	a5,-68(s0)
    2912:	a7da                	sh	a4,12(a5)
    2914:	fbc42783          	lw	a5,-68(s0)
    2918:	2bde                	lhu	a5,20(a5)
    291a:	07c2                	slli	a5,a5,0x10
    291c:	83c1                	srli	a5,a5,0x10
    291e:	fef42423          	sw	a5,-24(s0)
    2922:	fe842703          	lw	a4,-24(s0)
    2926:	67c1                	lui	a5,0x10
    2928:	cff78793          	addi	a5,a5,-769 # fcff <_data_lma+0x9953>
    292c:	8ff9                	and	a5,a5,a4
    292e:	fef42423          	sw	a5,-24(s0)
    2932:	fb842783          	lw	a5,-72(s0)
    2936:	27de                	lhu	a5,12(a5)
    2938:	873e                	mv	a4,a5
    293a:	fe842783          	lw	a5,-24(s0)
    293e:	8fd9                	or	a5,a5,a4
    2940:	fef42423          	sw	a5,-24(s0)
    2944:	fe842783          	lw	a5,-24(s0)
    2948:	01079713          	slli	a4,a5,0x10
    294c:	8341                	srli	a4,a4,0x10
    294e:	fbc42783          	lw	a5,-68(s0)
    2952:	abda                	sh	a4,20(a5)
    2954:	fc840793          	addi	a5,s0,-56
    2958:	853e                	mv	a0,a5
    295a:	fd1fe0ef          	jal	ra,192a <RCC_GetClocksFreq>
    295e:	fdc42703          	lw	a4,-36(s0)
    2962:	400147b7          	lui	a5,0x40014
    2966:	80078793          	addi	a5,a5,-2048 # 40013800 <_eusrstack+0x2000b800>
    296a:	00f71763          	bne	a4,a5,2978 <USART_Init+0x128>
    296e:	fd442783          	lw	a5,-44(s0)
    2972:	fef42623          	sw	a5,-20(s0)
    2976:	a029                	j	2980 <USART_Init+0x130>
    2978:	fd042783          	lw	a5,-48(s0)
    297c:	fef42623          	sw	a5,-20(s0)
    2980:	fec42703          	lw	a4,-20(s0)
    2984:	87ba                	mv	a5,a4
    2986:	0786                	slli	a5,a5,0x1
    2988:	97ba                	add	a5,a5,a4
    298a:	078e                	slli	a5,a5,0x3
    298c:	973e                	add	a4,a4,a5
    298e:	fb842783          	lw	a5,-72(s0)
    2992:	439c                	lw	a5,0(a5)
    2994:	078a                	slli	a5,a5,0x2
    2996:	02f757b3          	divu	a5,a4,a5
    299a:	fef42223          	sw	a5,-28(s0)
    299e:	fe442703          	lw	a4,-28(s0)
    29a2:	06400793          	li	a5,100
    29a6:	02f757b3          	divu	a5,a4,a5
    29aa:	0792                	slli	a5,a5,0x4
    29ac:	fef42423          	sw	a5,-24(s0)
    29b0:	fe842783          	lw	a5,-24(s0)
    29b4:	0047d713          	srli	a4,a5,0x4
    29b8:	06400793          	li	a5,100
    29bc:	02f707b3          	mul	a5,a4,a5
    29c0:	fe442703          	lw	a4,-28(s0)
    29c4:	40f707b3          	sub	a5,a4,a5
    29c8:	fef42023          	sw	a5,-32(s0)
    29cc:	fe042783          	lw	a5,-32(s0)
    29d0:	0792                	slli	a5,a5,0x4
    29d2:	03278713          	addi	a4,a5,50
    29d6:	06400793          	li	a5,100
    29da:	02f757b3          	divu	a5,a4,a5
    29de:	8bbd                	andi	a5,a5,15
    29e0:	fe842703          	lw	a4,-24(s0)
    29e4:	8fd9                	or	a5,a5,a4
    29e6:	fef42423          	sw	a5,-24(s0)
    29ea:	fe842783          	lw	a5,-24(s0)
    29ee:	01079713          	slli	a4,a5,0x10
    29f2:	8341                	srli	a4,a4,0x10
    29f4:	fbc42783          	lw	a5,-68(s0)
    29f8:	a79a                	sh	a4,8(a5)
    29fa:	0001                	nop
    29fc:	40b6                	lw	ra,76(sp)
    29fe:	4426                	lw	s0,72(sp)
    2a00:	6161                	addi	sp,sp,80
    2a02:	8082                	ret

00002a04 <USART_Cmd>:
    2a04:	1101                	addi	sp,sp,-32
    2a06:	ce22                	sw	s0,28(sp)
    2a08:	1000                	addi	s0,sp,32
    2a0a:	fea42623          	sw	a0,-20(s0)
    2a0e:	feb42423          	sw	a1,-24(s0)
    2a12:	fe842783          	lw	a5,-24(s0)
    2a16:	c385                	beqz	a5,2a36 <USART_Cmd+0x32>
    2a18:	fec42783          	lw	a5,-20(s0)
    2a1c:	27de                	lhu	a5,12(a5)
    2a1e:	01079713          	slli	a4,a5,0x10
    2a22:	8341                	srli	a4,a4,0x10
    2a24:	6789                	lui	a5,0x2
    2a26:	8fd9                	or	a5,a5,a4
    2a28:	01079713          	slli	a4,a5,0x10
    2a2c:	8341                	srli	a4,a4,0x10
    2a2e:	fec42783          	lw	a5,-20(s0)
    2a32:	a7da                	sh	a4,12(a5)
    2a34:	a005                	j	2a54 <USART_Cmd+0x50>
    2a36:	fec42783          	lw	a5,-20(s0)
    2a3a:	27de                	lhu	a5,12(a5)
    2a3c:	01079713          	slli	a4,a5,0x10
    2a40:	8341                	srli	a4,a4,0x10
    2a42:	77f9                	lui	a5,0xffffe
    2a44:	17fd                	addi	a5,a5,-1
    2a46:	8ff9                	and	a5,a5,a4
    2a48:	01079713          	slli	a4,a5,0x10
    2a4c:	8341                	srli	a4,a4,0x10
    2a4e:	fec42783          	lw	a5,-20(s0)
    2a52:	a7da                	sh	a4,12(a5)
    2a54:	0001                	nop
    2a56:	4472                	lw	s0,28(sp)
    2a58:	6105                	addi	sp,sp,32
    2a5a:	8082                	ret

00002a5c <USART_ITConfig>:
    2a5c:	7179                	addi	sp,sp,-48
    2a5e:	d622                	sw	s0,44(sp)
    2a60:	1800                	addi	s0,sp,48
    2a62:	fca42e23          	sw	a0,-36(s0)
    2a66:	87ae                	mv	a5,a1
    2a68:	fcc42a23          	sw	a2,-44(s0)
    2a6c:	fcf41d23          	sh	a5,-38(s0)
    2a70:	fe042423          	sw	zero,-24(s0)
    2a74:	fe042223          	sw	zero,-28(s0)
    2a78:	fe042023          	sw	zero,-32(s0)
    2a7c:	fe042623          	sw	zero,-20(s0)
    2a80:	fdc42783          	lw	a5,-36(s0)
    2a84:	fef42623          	sw	a5,-20(s0)
    2a88:	fda45783          	lhu	a5,-38(s0)
    2a8c:	0ff7f793          	andi	a5,a5,255
    2a90:	8395                	srli	a5,a5,0x5
    2a92:	0ff7f793          	andi	a5,a5,255
    2a96:	fef42423          	sw	a5,-24(s0)
    2a9a:	fda45783          	lhu	a5,-38(s0)
    2a9e:	8bfd                	andi	a5,a5,31
    2aa0:	fef42223          	sw	a5,-28(s0)
    2aa4:	fe442783          	lw	a5,-28(s0)
    2aa8:	4705                	li	a4,1
    2aaa:	00f717b3          	sll	a5,a4,a5
    2aae:	fef42023          	sw	a5,-32(s0)
    2ab2:	fe842703          	lw	a4,-24(s0)
    2ab6:	4785                	li	a5,1
    2ab8:	00f71863          	bne	a4,a5,2ac8 <USART_ITConfig+0x6c>
    2abc:	fec42783          	lw	a5,-20(s0)
    2ac0:	07b1                	addi	a5,a5,12
    2ac2:	fef42623          	sw	a5,-20(s0)
    2ac6:	a00d                	j	2ae8 <USART_ITConfig+0x8c>
    2ac8:	fe842703          	lw	a4,-24(s0)
    2acc:	4789                	li	a5,2
    2ace:	00f71863          	bne	a4,a5,2ade <USART_ITConfig+0x82>
    2ad2:	fec42783          	lw	a5,-20(s0)
    2ad6:	07c1                	addi	a5,a5,16
    2ad8:	fef42623          	sw	a5,-20(s0)
    2adc:	a031                	j	2ae8 <USART_ITConfig+0x8c>
    2ade:	fec42783          	lw	a5,-20(s0)
    2ae2:	07d1                	addi	a5,a5,20
    2ae4:	fef42623          	sw	a5,-20(s0)
    2ae8:	fd442783          	lw	a5,-44(s0)
    2aec:	cb99                	beqz	a5,2b02 <USART_ITConfig+0xa6>
    2aee:	fec42783          	lw	a5,-20(s0)
    2af2:	4394                	lw	a3,0(a5)
    2af4:	fec42783          	lw	a5,-20(s0)
    2af8:	fe042703          	lw	a4,-32(s0)
    2afc:	8f55                	or	a4,a4,a3
    2afe:	c398                	sw	a4,0(a5)
    2b00:	a821                	j	2b18 <USART_ITConfig+0xbc>
    2b02:	fec42783          	lw	a5,-20(s0)
    2b06:	4394                	lw	a3,0(a5)
    2b08:	fe042783          	lw	a5,-32(s0)
    2b0c:	fff7c713          	not	a4,a5
    2b10:	fec42783          	lw	a5,-20(s0)
    2b14:	8f75                	and	a4,a4,a3
    2b16:	c398                	sw	a4,0(a5)
    2b18:	0001                	nop
    2b1a:	5432                	lw	s0,44(sp)
    2b1c:	6145                	addi	sp,sp,48
    2b1e:	8082                	ret

00002b20 <USART_SendData>:
    2b20:	1101                	addi	sp,sp,-32
    2b22:	ce22                	sw	s0,28(sp)
    2b24:	1000                	addi	s0,sp,32
    2b26:	fea42623          	sw	a0,-20(s0)
    2b2a:	87ae                	mv	a5,a1
    2b2c:	fef41523          	sh	a5,-22(s0)
    2b30:	fea45783          	lhu	a5,-22(s0)
    2b34:	1ff7f793          	andi	a5,a5,511
    2b38:	01079713          	slli	a4,a5,0x10
    2b3c:	8341                	srli	a4,a4,0x10
    2b3e:	fec42783          	lw	a5,-20(s0)
    2b42:	a3da                	sh	a4,4(a5)
    2b44:	0001                	nop
    2b46:	4472                	lw	s0,28(sp)
    2b48:	6105                	addi	sp,sp,32
    2b4a:	8082                	ret

00002b4c <USART_ReceiveData>:
    2b4c:	1101                	addi	sp,sp,-32
    2b4e:	ce22                	sw	s0,28(sp)
    2b50:	1000                	addi	s0,sp,32
    2b52:	fea42623          	sw	a0,-20(s0)
    2b56:	fec42783          	lw	a5,-20(s0)
    2b5a:	23de                	lhu	a5,4(a5)
    2b5c:	07c2                	slli	a5,a5,0x10
    2b5e:	83c1                	srli	a5,a5,0x10
    2b60:	1ff7f793          	andi	a5,a5,511
    2b64:	07c2                	slli	a5,a5,0x10
    2b66:	83c1                	srli	a5,a5,0x10
    2b68:	853e                	mv	a0,a5
    2b6a:	4472                	lw	s0,28(sp)
    2b6c:	6105                	addi	sp,sp,32
    2b6e:	8082                	ret

00002b70 <USART_GetFlagStatus>:
    2b70:	7179                	addi	sp,sp,-48
    2b72:	d622                	sw	s0,44(sp)
    2b74:	1800                	addi	s0,sp,48
    2b76:	fca42e23          	sw	a0,-36(s0)
    2b7a:	87ae                	mv	a5,a1
    2b7c:	fcf41d23          	sh	a5,-38(s0)
    2b80:	fe042623          	sw	zero,-20(s0)
    2b84:	fdc42783          	lw	a5,-36(s0)
    2b88:	239e                	lhu	a5,0(a5)
    2b8a:	01079713          	slli	a4,a5,0x10
    2b8e:	8341                	srli	a4,a4,0x10
    2b90:	fda45783          	lhu	a5,-38(s0)
    2b94:	8ff9                	and	a5,a5,a4
    2b96:	07c2                	slli	a5,a5,0x10
    2b98:	83c1                	srli	a5,a5,0x10
    2b9a:	c789                	beqz	a5,2ba4 <USART_GetFlagStatus+0x34>
    2b9c:	4785                	li	a5,1
    2b9e:	fef42623          	sw	a5,-20(s0)
    2ba2:	a019                	j	2ba8 <USART_GetFlagStatus+0x38>
    2ba4:	fe042623          	sw	zero,-20(s0)
    2ba8:	fec42783          	lw	a5,-20(s0)
    2bac:	853e                	mv	a0,a5
    2bae:	5432                	lw	s0,44(sp)
    2bb0:	6145                	addi	sp,sp,48
    2bb2:	8082                	ret

00002bb4 <USART_GetITStatus>:
    2bb4:	7179                	addi	sp,sp,-48
    2bb6:	d622                	sw	s0,44(sp)
    2bb8:	1800                	addi	s0,sp,48
    2bba:	fca42e23          	sw	a0,-36(s0)
    2bbe:	87ae                	mv	a5,a1
    2bc0:	fcf41d23          	sh	a5,-38(s0)
    2bc4:	fe042223          	sw	zero,-28(s0)
    2bc8:	fe042623          	sw	zero,-20(s0)
    2bcc:	fe042023          	sw	zero,-32(s0)
    2bd0:	fe042423          	sw	zero,-24(s0)
    2bd4:	fda45783          	lhu	a5,-38(s0)
    2bd8:	0ff7f793          	andi	a5,a5,255
    2bdc:	8395                	srli	a5,a5,0x5
    2bde:	0ff7f793          	andi	a5,a5,255
    2be2:	fef42023          	sw	a5,-32(s0)
    2be6:	fda45783          	lhu	a5,-38(s0)
    2bea:	8bfd                	andi	a5,a5,31
    2bec:	fef42623          	sw	a5,-20(s0)
    2bf0:	fec42783          	lw	a5,-20(s0)
    2bf4:	4705                	li	a4,1
    2bf6:	00f717b3          	sll	a5,a4,a5
    2bfa:	fef42623          	sw	a5,-20(s0)
    2bfe:	fe042703          	lw	a4,-32(s0)
    2c02:	4785                	li	a5,1
    2c04:	00f71e63          	bne	a4,a5,2c20 <USART_GetITStatus+0x6c>
    2c08:	fdc42783          	lw	a5,-36(s0)
    2c0c:	27de                	lhu	a5,12(a5)
    2c0e:	07c2                	slli	a5,a5,0x10
    2c10:	83c1                	srli	a5,a5,0x10
    2c12:	873e                	mv	a4,a5
    2c14:	fec42783          	lw	a5,-20(s0)
    2c18:	8ff9                	and	a5,a5,a4
    2c1a:	fef42623          	sw	a5,-20(s0)
    2c1e:	a82d                	j	2c58 <USART_GetITStatus+0xa4>
    2c20:	fe042703          	lw	a4,-32(s0)
    2c24:	4789                	li	a5,2
    2c26:	00f71e63          	bne	a4,a5,2c42 <USART_GetITStatus+0x8e>
    2c2a:	fdc42783          	lw	a5,-36(s0)
    2c2e:	2b9e                	lhu	a5,16(a5)
    2c30:	07c2                	slli	a5,a5,0x10
    2c32:	83c1                	srli	a5,a5,0x10
    2c34:	873e                	mv	a4,a5
    2c36:	fec42783          	lw	a5,-20(s0)
    2c3a:	8ff9                	and	a5,a5,a4
    2c3c:	fef42623          	sw	a5,-20(s0)
    2c40:	a821                	j	2c58 <USART_GetITStatus+0xa4>
    2c42:	fdc42783          	lw	a5,-36(s0)
    2c46:	2bde                	lhu	a5,20(a5)
    2c48:	07c2                	slli	a5,a5,0x10
    2c4a:	83c1                	srli	a5,a5,0x10
    2c4c:	873e                	mv	a4,a5
    2c4e:	fec42783          	lw	a5,-20(s0)
    2c52:	8ff9                	and	a5,a5,a4
    2c54:	fef42623          	sw	a5,-20(s0)
    2c58:	fda45783          	lhu	a5,-38(s0)
    2c5c:	83a1                	srli	a5,a5,0x8
    2c5e:	07c2                	slli	a5,a5,0x10
    2c60:	83c1                	srli	a5,a5,0x10
    2c62:	fef42223          	sw	a5,-28(s0)
    2c66:	fe442783          	lw	a5,-28(s0)
    2c6a:	4705                	li	a4,1
    2c6c:	00f717b3          	sll	a5,a4,a5
    2c70:	fef42223          	sw	a5,-28(s0)
    2c74:	fdc42783          	lw	a5,-36(s0)
    2c78:	239e                	lhu	a5,0(a5)
    2c7a:	07c2                	slli	a5,a5,0x10
    2c7c:	83c1                	srli	a5,a5,0x10
    2c7e:	873e                	mv	a4,a5
    2c80:	fe442783          	lw	a5,-28(s0)
    2c84:	8ff9                	and	a5,a5,a4
    2c86:	fef42223          	sw	a5,-28(s0)
    2c8a:	fec42783          	lw	a5,-20(s0)
    2c8e:	cb81                	beqz	a5,2c9e <USART_GetITStatus+0xea>
    2c90:	fe442783          	lw	a5,-28(s0)
    2c94:	c789                	beqz	a5,2c9e <USART_GetITStatus+0xea>
    2c96:	4785                	li	a5,1
    2c98:	fef42423          	sw	a5,-24(s0)
    2c9c:	a019                	j	2ca2 <USART_GetITStatus+0xee>
    2c9e:	fe042423          	sw	zero,-24(s0)
    2ca2:	fe842783          	lw	a5,-24(s0)
    2ca6:	853e                	mv	a0,a5
    2ca8:	5432                	lw	s0,44(sp)
    2caa:	6145                	addi	sp,sp,48
    2cac:	8082                	ret

00002cae <USART_ClearITPendingBit>:
    2cae:	7179                	addi	sp,sp,-48
    2cb0:	d622                	sw	s0,44(sp)
    2cb2:	1800                	addi	s0,sp,48
    2cb4:	fca42e23          	sw	a0,-36(s0)
    2cb8:	87ae                	mv	a5,a1
    2cba:	fcf41d23          	sh	a5,-38(s0)
    2cbe:	fe041723          	sh	zero,-18(s0)
    2cc2:	fe041623          	sh	zero,-20(s0)
    2cc6:	fda45783          	lhu	a5,-38(s0)
    2cca:	83a1                	srli	a5,a5,0x8
    2ccc:	fef41723          	sh	a5,-18(s0)
    2cd0:	fee45783          	lhu	a5,-18(s0)
    2cd4:	4705                	li	a4,1
    2cd6:	00f717b3          	sll	a5,a4,a5
    2cda:	fef41623          	sh	a5,-20(s0)
    2cde:	fec45783          	lhu	a5,-20(s0)
    2ce2:	fff7c793          	not	a5,a5
    2ce6:	01079713          	slli	a4,a5,0x10
    2cea:	8341                	srli	a4,a4,0x10
    2cec:	fdc42783          	lw	a5,-36(s0)
    2cf0:	a39a                	sh	a4,0(a5)
    2cf2:	0001                	nop
    2cf4:	5432                	lw	s0,44(sp)
    2cf6:	6145                	addi	sp,sp,48
    2cf8:	8082                	ret

00002cfa <ADC_Function_Init>:
    2cfa:	7139                	addi	sp,sp,-64
    2cfc:	de06                	sw	ra,60(sp)
    2cfe:	dc22                	sw	s0,56(sp)
    2d00:	0080                	addi	s0,sp,64
    2d02:	fc042823          	sw	zero,-48(s0)
    2d06:	fc042a23          	sw	zero,-44(s0)
    2d0a:	fc042c23          	sw	zero,-40(s0)
    2d0e:	fc042e23          	sw	zero,-36(s0)
    2d12:	fe042023          	sw	zero,-32(s0)
    2d16:	fe042223          	sw	zero,-28(s0)
    2d1a:	fe042423          	sw	zero,-24(s0)
    2d1e:	fe042623          	sw	zero,-20(s0)
    2d22:	fc042223          	sw	zero,-60(s0)
    2d26:	fc042423          	sw	zero,-56(s0)
    2d2a:	fc042623          	sw	zero,-52(s0)
    2d2e:	4585                	li	a1,1
    2d30:	4541                	li	a0,16
    2d32:	fcdfe0ef          	jal	ra,1cfe <RCC_APB2PeriphClockCmd>
    2d36:	4585                	li	a1,1
    2d38:	20000513          	li	a0,512
    2d3c:	fc3fe0ef          	jal	ra,1cfe <RCC_APB2PeriphClockCmd>
    2d40:	6531                	lui	a0,0xc
    2d42:	ba3fe0ef          	jal	ra,18e4 <RCC_ADCCLKConfig>
    2d46:	47a1                	li	a5,8
    2d48:	fcf41223          	sh	a5,-60(s0)
    2d4c:	fc042623          	sw	zero,-52(s0)
    2d50:	fc440793          	addi	a5,s0,-60
    2d54:	85be                	mv	a1,a5
    2d56:	40011537          	lui	a0,0x40011
    2d5a:	e88fe0ef          	jal	ra,13e2 <GPIO_Init>
    2d5e:	400127b7          	lui	a5,0x40012
    2d62:	40078513          	addi	a0,a5,1024 # 40012400 <_eusrstack+0x2000a400>
    2d66:	d1bfd0ef          	jal	ra,a80 <ADC_DeInit>
    2d6a:	fc042823          	sw	zero,-48(s0)
    2d6e:	fc042a23          	sw	zero,-44(s0)
    2d72:	4785                	li	a5,1
    2d74:	fcf42c23          	sw	a5,-40(s0)
    2d78:	000e07b7          	lui	a5,0xe0
    2d7c:	fcf42e23          	sw	a5,-36(s0)
    2d80:	fe042023          	sw	zero,-32(s0)
    2d84:	4785                	li	a5,1
    2d86:	fef40223          	sb	a5,-28(s0)
    2d8a:	fd040793          	addi	a5,s0,-48
    2d8e:	85be                	mv	a1,a5
    2d90:	400127b7          	lui	a5,0x40012
    2d94:	40078513          	addi	a0,a5,1024 # 40012400 <_eusrstack+0x2000a400>
    2d98:	d49fd0ef          	jal	ra,ae0 <ADC_Init>
    2d9c:	4585                	li	a1,1
    2d9e:	400127b7          	lui	a5,0x40012
    2da2:	40078513          	addi	a0,a5,1024 # 40012400 <_eusrstack+0x2000a400>
    2da6:	e79fd0ef          	jal	ra,c1e <ADC_DMACmd>
    2daa:	4585                	li	a1,1
    2dac:	400127b7          	lui	a5,0x40012
    2db0:	40078513          	addi	a0,a5,1024 # 40012400 <_eusrstack+0x2000a400>
    2db4:	e2dfd0ef          	jal	ra,be0 <ADC_Cmd>
    2db8:	4581                	li	a1,0
    2dba:	400127b7          	lui	a5,0x40012
    2dbe:	40078513          	addi	a0,a5,1024 # 40012400 <_eusrstack+0x2000a400>
    2dc2:	9cafe0ef          	jal	ra,f8c <ADC_BufferCmd>
    2dc6:	400127b7          	lui	a5,0x40012
    2dca:	40078513          	addi	a0,a5,1024 # 40012400 <_eusrstack+0x2000a400>
    2dce:	e8ffd0ef          	jal	ra,c5c <ADC_ResetCalibration>
    2dd2:	0001                	nop
    2dd4:	400127b7          	lui	a5,0x40012
    2dd8:	40078513          	addi	a0,a5,1024 # 40012400 <_eusrstack+0x2000a400>
    2ddc:	ea3fd0ef          	jal	ra,c7e <ADC_GetResetCalibrationStatus>
    2de0:	87aa                	mv	a5,a0
    2de2:	fbed                	bnez	a5,2dd4 <ADC_Function_Init+0xda>
    2de4:	400127b7          	lui	a5,0x40012
    2de8:	40078513          	addi	a0,a5,1024 # 40012400 <_eusrstack+0x2000a400>
    2dec:	ec3fd0ef          	jal	ra,cae <ADC_StartCalibration>
    2df0:	0001                	nop
    2df2:	400127b7          	lui	a5,0x40012
    2df6:	40078513          	addi	a0,a5,1024 # 40012400 <_eusrstack+0x2000a400>
    2dfa:	ed7fd0ef          	jal	ra,cd0 <ADC_GetCalibrationStatus>
    2dfe:	87aa                	mv	a5,a0
    2e00:	fbed                	bnez	a5,2df2 <ADC_Function_Init+0xf8>
    2e02:	0001                	nop
    2e04:	50f2                	lw	ra,60(sp)
    2e06:	5462                	lw	s0,56(sp)
    2e08:	6121                	addi	sp,sp,64
    2e0a:	8082                	ret

00002e0c <DMA_Tx_Init>:
    2e0c:	715d                	addi	sp,sp,-80
    2e0e:	c686                	sw	ra,76(sp)
    2e10:	c4a2                	sw	s0,72(sp)
    2e12:	0880                	addi	s0,sp,80
    2e14:	faa42e23          	sw	a0,-68(s0)
    2e18:	fab42c23          	sw	a1,-72(s0)
    2e1c:	fac42a23          	sw	a2,-76(s0)
    2e20:	87b6                	mv	a5,a3
    2e22:	faf41923          	sh	a5,-78(s0)
    2e26:	fc042223          	sw	zero,-60(s0)
    2e2a:	fc042423          	sw	zero,-56(s0)
    2e2e:	fc042623          	sw	zero,-52(s0)
    2e32:	fc042823          	sw	zero,-48(s0)
    2e36:	fc042a23          	sw	zero,-44(s0)
    2e3a:	fc042c23          	sw	zero,-40(s0)
    2e3e:	fc042e23          	sw	zero,-36(s0)
    2e42:	fe042023          	sw	zero,-32(s0)
    2e46:	fe042223          	sw	zero,-28(s0)
    2e4a:	fe042423          	sw	zero,-24(s0)
    2e4e:	fe042623          	sw	zero,-20(s0)
    2e52:	4585                	li	a1,1
    2e54:	4505                	li	a0,1
    2e56:	e63fe0ef          	jal	ra,1cb8 <RCC_AHBPeriphClockCmd>
    2e5a:	fbc42503          	lw	a0,-68(s0)
    2e5e:	98afe0ef          	jal	ra,fe8 <DMA_DeInit>
    2e62:	fb842783          	lw	a5,-72(s0)
    2e66:	fcf42223          	sw	a5,-60(s0)
    2e6a:	fb442783          	lw	a5,-76(s0)
    2e6e:	fcf42423          	sw	a5,-56(s0)
    2e72:	fc042623          	sw	zero,-52(s0)
    2e76:	fb245783          	lhu	a5,-78(s0)
    2e7a:	fcf42823          	sw	a5,-48(s0)
    2e7e:	fc042a23          	sw	zero,-44(s0)
    2e82:	08000793          	li	a5,128
    2e86:	fcf42c23          	sw	a5,-40(s0)
    2e8a:	10000793          	li	a5,256
    2e8e:	fcf42e23          	sw	a5,-36(s0)
    2e92:	40000793          	li	a5,1024
    2e96:	fef42023          	sw	a5,-32(s0)
    2e9a:	02000793          	li	a5,32
    2e9e:	fef42223          	sw	a5,-28(s0)
    2ea2:	678d                	lui	a5,0x3
    2ea4:	fef42423          	sw	a5,-24(s0)
    2ea8:	fe042623          	sw	zero,-20(s0)
    2eac:	fc440793          	addi	a5,s0,-60
    2eb0:	85be                	mv	a1,a5
    2eb2:	fbc42503          	lw	a0,-68(s0)
    2eb6:	c44fe0ef          	jal	ra,12fa <DMA_Init>
    2eba:	0001                	nop
    2ebc:	40b6                	lw	ra,76(sp)
    2ebe:	4426                	lw	s0,72(sp)
    2ec0:	6161                	addi	sp,sp,80
    2ec2:	8082                	ret

00002ec4 <ADCInit>:
    2ec4:	1141                	addi	sp,sp,-16
    2ec6:	c606                	sw	ra,12(sp)
    2ec8:	c422                	sw	s0,8(sp)
    2eca:	0800                	addi	s0,sp,16
    2ecc:	353d                	jal	2cfa <ADC_Function_Init>
    2ece:	81818793          	addi	a5,gp,-2024 # 200001b8 <voltage>
    2ed2:	4685                	li	a3,1
    2ed4:	863e                	mv	a2,a5
    2ed6:	400127b7          	lui	a5,0x40012
    2eda:	44c78593          	addi	a1,a5,1100 # 4001244c <_eusrstack+0x2000a44c>
    2ede:	400207b7          	lui	a5,0x40020
    2ee2:	00878513          	addi	a0,a5,8 # 40020008 <_eusrstack+0x20018008>
    2ee6:	371d                	jal	2e0c <DMA_Tx_Init>
    2ee8:	4585                	li	a1,1
    2eea:	400207b7          	lui	a5,0x40020
    2eee:	00878513          	addi	a0,a5,8 # 40020008 <_eusrstack+0x20018008>
    2ef2:	cb0fe0ef          	jal	ra,13a2 <DMA_Cmd>
    2ef6:	469d                	li	a3,7
    2ef8:	4605                	li	a2,1
    2efa:	45b5                	li	a1,13
    2efc:	400127b7          	lui	a5,0x40012
    2f00:	40078513          	addi	a0,a5,1024 # 40012400 <_eusrstack+0x2000a400>
    2f04:	e41fd0ef          	jal	ra,d44 <ADC_RegularChannelConfig>
    2f08:	4585                	li	a1,1
    2f0a:	400127b7          	lui	a5,0x40012
    2f0e:	40078513          	addi	a0,a5,1024 # 40012400 <_eusrstack+0x2000a400>
    2f12:	deffd0ef          	jal	ra,d00 <ADC_SoftwareStartConvCmd>
    2f16:	0001                	nop
    2f18:	40b2                	lw	ra,12(sp)
    2f1a:	4422                	lw	s0,8(sp)
    2f1c:	0141                	addi	sp,sp,16
    2f1e:	8082                	ret

00002f20 <ParseCommunicationFrame>:
    2f20:	7179                	addi	sp,sp,-48
    2f22:	d606                	sw	ra,44(sp)
    2f24:	d422                	sw	s0,40(sp)
    2f26:	1800                	addi	s0,sp,48
    2f28:	fca42e23          	sw	a0,-36(s0)
    2f2c:	81c1a783          	lw	a5,-2020(gp) # 200001bc <parser_state.5962>
    2f30:	1c079163          	bnez	a5,30f2 <ParseCommunicationFrame+0x1d2>
    2f34:	fdc42783          	lw	a5,-36(s0)
    2f38:	2798                	lbu	a4,8(a5)
    2f3a:	0aa00793          	li	a5,170
    2f3e:	02f71563          	bne	a4,a5,2f68 <ParseCommunicationFrame+0x48>
    2f42:	fdc42783          	lw	a5,-36(s0)
    2f46:	10c78793          	addi	a5,a5,268
    2f4a:	4631                	li	a2,12
    2f4c:	4581                	li	a1,0
    2f4e:	853e                	mv	a0,a5
    2f50:	a70fd0ef          	jal	ra,1c0 <memset>
    2f54:	fdc42783          	lw	a5,-36(s0)
    2f58:	2798                	lbu	a4,8(a5)
    2f5a:	fdc42783          	lw	a5,-36(s0)
    2f5e:	10e78623          	sb	a4,268(a5)
    2f62:	4705                	li	a4,1
    2f64:	80e1ae23          	sw	a4,-2020(gp) # 200001bc <parser_state.5962>
    2f68:	81c1a703          	lw	a4,-2020(gp) # 200001bc <parser_state.5962>
    2f6c:	4785                	li	a5,1
    2f6e:	18f71463          	bne	a4,a5,30f6 <ParseCommunicationFrame+0x1d6>
    2f72:	fdc42783          	lw	a5,-36(s0)
    2f76:	3798                	lbu	a4,9(a5)
    2f78:	fdc42783          	lw	a5,-36(s0)
    2f7c:	10e786a3          	sb	a4,269(a5)
    2f80:	4709                	li	a4,2
    2f82:	80e1ae23          	sw	a4,-2020(gp) # 200001bc <parser_state.5962>
    2f86:	81c1a703          	lw	a4,-2020(gp) # 200001bc <parser_state.5962>
    2f8a:	4789                	li	a5,2
    2f8c:	16f71763          	bne	a4,a5,30fa <ParseCommunicationFrame+0x1da>
    2f90:	fdc42783          	lw	a5,-36(s0)
    2f94:	27b8                	lbu	a4,10(a5)
    2f96:	fdc42783          	lw	a5,-36(s0)
    2f9a:	10e78723          	sb	a4,270(a5)
    2f9e:	470d                	li	a4,3
    2fa0:	80e1ae23          	sw	a4,-2020(gp) # 200001bc <parser_state.5962>
    2fa4:	81c1a703          	lw	a4,-2020(gp) # 200001bc <parser_state.5962>
    2fa8:	478d                	li	a5,3
    2faa:	14f71a63          	bne	a4,a5,30fe <ParseCommunicationFrame+0x1de>
    2fae:	fdc42783          	lw	a5,-36(s0)
    2fb2:	37b8                	lbu	a4,11(a5)
    2fb4:	fdc42783          	lw	a5,-36(s0)
    2fb8:	10e787a3          	sb	a4,271(a5)
    2fbc:	fdc42783          	lw	a5,-36(s0)
    2fc0:	37bc                	lbu	a5,11(a5)
    2fc2:	cb8d                	beqz	a5,2ff4 <ParseCommunicationFrame+0xd4>
    2fc4:	fdc42783          	lw	a5,-36(s0)
    2fc8:	37bc                	lbu	a5,11(a5)
    2fca:	853e                	mv	a0,a5
    2fcc:	6c8020ef          	jal	ra,5694 <malloc>
    2fd0:	87aa                	mv	a5,a0
    2fd2:	873e                	mv	a4,a5
    2fd4:	fdc42783          	lw	a5,-36(s0)
    2fd8:	10e7a823          	sw	a4,272(a5)
    2fdc:	fdc42783          	lw	a5,-36(s0)
    2fe0:	1107a783          	lw	a5,272(a5)
    2fe4:	e781                	bnez	a5,2fec <ParseCommunicationFrame+0xcc>
    2fe6:	8001ae23          	sw	zero,-2020(gp) # 200001bc <parser_state.5962>
    2fea:	aa19                	j	3100 <ParseCommunicationFrame+0x1e0>
    2fec:	4711                	li	a4,4
    2fee:	80e1ae23          	sw	a4,-2020(gp) # 200001bc <parser_state.5962>
    2ff2:	a021                	j	2ffa <ParseCommunicationFrame+0xda>
    2ff4:	4715                	li	a4,5
    2ff6:	80e1ae23          	sw	a4,-2020(gp) # 200001bc <parser_state.5962>
    2ffa:	81c1a703          	lw	a4,-2020(gp) # 200001bc <parser_state.5962>
    2ffe:	4791                	li	a5,4
    3000:	04f71c63          	bne	a4,a5,3058 <ParseCommunicationFrame+0x138>
    3004:	fdc42783          	lw	a5,-36(s0)
    3008:	1107a783          	lw	a5,272(a5)
    300c:	c7a5                	beqz	a5,3074 <ParseCommunicationFrame+0x154>
    300e:	fe042623          	sw	zero,-20(s0)
    3012:	a035                	j	303e <ParseCommunicationFrame+0x11e>
    3014:	fec42783          	lw	a5,-20(s0)
    3018:	00478713          	addi	a4,a5,4
    301c:	fdc42783          	lw	a5,-36(s0)
    3020:	1107a683          	lw	a3,272(a5)
    3024:	fec42783          	lw	a5,-20(s0)
    3028:	97b6                	add	a5,a5,a3
    302a:	fdc42683          	lw	a3,-36(s0)
    302e:	9736                	add	a4,a4,a3
    3030:	2718                	lbu	a4,8(a4)
    3032:	a398                	sb	a4,0(a5)
    3034:	fec42783          	lw	a5,-20(s0)
    3038:	0785                	addi	a5,a5,1
    303a:	fef42623          	sw	a5,-20(s0)
    303e:	fdc42783          	lw	a5,-36(s0)
    3042:	10f7c783          	lbu	a5,271(a5)
    3046:	873e                	mv	a4,a5
    3048:	fec42783          	lw	a5,-20(s0)
    304c:	fce7c4e3          	blt	a5,a4,3014 <ParseCommunicationFrame+0xf4>
    3050:	4715                	li	a4,5
    3052:	80e1ae23          	sw	a4,-2020(gp) # 200001bc <parser_state.5962>
    3056:	a839                	j	3074 <ParseCommunicationFrame+0x154>
    3058:	fdc42783          	lw	a5,-36(s0)
    305c:	1107a783          	lw	a5,272(a5)
    3060:	853e                	mv	a0,a5
    3062:	63c020ef          	jal	ra,569e <free>
    3066:	fdc42783          	lw	a5,-36(s0)
    306a:	1007a823          	sw	zero,272(a5)
    306e:	8001ae23          	sw	zero,-2020(gp) # 200001bc <parser_state.5962>
    3072:	a079                	j	3100 <ParseCommunicationFrame+0x1e0>
    3074:	81c1a703          	lw	a4,-2020(gp) # 200001bc <parser_state.5962>
    3078:	4795                	li	a5,5
    307a:	06f71063          	bne	a4,a5,30da <ParseCommunicationFrame+0x1ba>
    307e:	fdc42783          	lw	a5,-36(s0)
    3082:	10f7c783          	lbu	a5,271(a5)
    3086:	0791                	addi	a5,a5,4
    3088:	fdc42703          	lw	a4,-36(s0)
    308c:	97ba                	add	a5,a5,a4
    308e:	2798                	lbu	a4,8(a5)
    3090:	0ff00793          	li	a5,255
    3094:	02f71563          	bne	a4,a5,30be <ParseCommunicationFrame+0x19e>
    3098:	fdc42783          	lw	a5,-36(s0)
    309c:	10f7c783          	lbu	a5,271(a5)
    30a0:	0791                	addi	a5,a5,4
    30a2:	fdc42703          	lw	a4,-36(s0)
    30a6:	97ba                	add	a5,a5,a4
    30a8:	2798                	lbu	a4,8(a5)
    30aa:	fdc42783          	lw	a5,-36(s0)
    30ae:	10e78a23          	sb	a4,276(a5)
    30b2:	fdc42503          	lw	a0,-36(s0)
    30b6:	2889                	jal	3108 <ProcessCompleteFrame>
    30b8:	8001ae23          	sw	zero,-2020(gp) # 200001bc <parser_state.5962>
    30bc:	a839                	j	30da <ParseCommunicationFrame+0x1ba>
    30be:	fdc42783          	lw	a5,-36(s0)
    30c2:	1107a783          	lw	a5,272(a5)
    30c6:	853e                	mv	a0,a5
    30c8:	5d6020ef          	jal	ra,569e <free>
    30cc:	fdc42783          	lw	a5,-36(s0)
    30d0:	1007a823          	sw	zero,272(a5)
    30d4:	8001ae23          	sw	zero,-2020(gp) # 200001bc <parser_state.5962>
    30d8:	a025                	j	3100 <ParseCommunicationFrame+0x1e0>
    30da:	fdc42783          	lw	a5,-36(s0)
    30de:	1107a783          	lw	a5,272(a5)
    30e2:	853e                	mv	a0,a5
    30e4:	5ba020ef          	jal	ra,569e <free>
    30e8:	fdc42783          	lw	a5,-36(s0)
    30ec:	1007a823          	sw	zero,272(a5)
    30f0:	a801                	j	3100 <ParseCommunicationFrame+0x1e0>
    30f2:	0001                	nop
    30f4:	a031                	j	3100 <ParseCommunicationFrame+0x1e0>
    30f6:	0001                	nop
    30f8:	a021                	j	3100 <ParseCommunicationFrame+0x1e0>
    30fa:	0001                	nop
    30fc:	a011                	j	3100 <ParseCommunicationFrame+0x1e0>
    30fe:	0001                	nop
    3100:	50b2                	lw	ra,44(sp)
    3102:	5422                	lw	s0,40(sp)
    3104:	6145                	addi	sp,sp,48
    3106:	8082                	ret

00003108 <ProcessCompleteFrame>:
    3108:	7179                	addi	sp,sp,-48
    310a:	d606                	sw	ra,44(sp)
    310c:	d422                	sw	s0,40(sp)
    310e:	1800                	addi	s0,sp,48
    3110:	fca42e23          	sw	a0,-36(s0)
    3114:	fdc42783          	lw	a5,-36(s0)
    3118:	10c78793          	addi	a5,a5,268
    311c:	fef42623          	sw	a5,-20(s0)
    3120:	fec42783          	lw	a5,-20(s0)
    3124:	339c                	lbu	a5,1(a5)
    3126:	0d200713          	li	a4,210
    312a:	02e78863          	beq	a5,a4,315a <ProcessCompleteFrame+0x52>
    312e:	0d300713          	li	a4,211
    3132:	04e78163          	beq	a5,a4,3174 <ProcessCompleteFrame+0x6c>
    3136:	0d100713          	li	a4,209
    313a:	04e79a63          	bne	a5,a4,318e <ProcessCompleteFrame+0x86>
    313e:	fec42783          	lw	a5,-20(s0)
    3142:	23b8                	lbu	a4,2(a5)
    3144:	fec42783          	lw	a5,-20(s0)
    3148:	43d4                	lw	a3,4(a5)
    314a:	fec42783          	lw	a5,-20(s0)
    314e:	33bc                	lbu	a5,3(a5)
    3150:	863e                	mv	a2,a5
    3152:	85b6                	mv	a1,a3
    3154:	853a                	mv	a0,a4
    3156:	2085                	jal	31b6 <ExecuteLocalCommand>
    3158:	a825                	j	3190 <ProcessCompleteFrame+0x88>
    315a:	6799                	lui	a5,0x6
    315c:	13c78513          	addi	a0,a5,316 # 613c <_malloc_usable_size_r+0x34>
    3160:	56e010ef          	jal	ra,46ce <USART1_Printf>
    3164:	fdc42783          	lw	a5,-36(s0)
    3168:	439c                	lw	a5,0(a5)
    316a:	fec42583          	lw	a1,-20(s0)
    316e:	853e                	mv	a0,a5
    3170:	2865                	jal	3228 <ForwardToDevice>
    3172:	a839                	j	3190 <ProcessCompleteFrame+0x88>
    3174:	6799                	lui	a5,0x6
    3176:	15078513          	addi	a0,a5,336 # 6150 <_malloc_usable_size_r+0x48>
    317a:	554010ef          	jal	ra,46ce <USART1_Printf>
    317e:	fdc42783          	lw	a5,-36(s0)
    3182:	43dc                	lw	a5,4(a5)
    3184:	fec42583          	lw	a1,-20(s0)
    3188:	853e                	mv	a0,a5
    318a:	2879                	jal	3228 <ForwardToDevice>
    318c:	a011                	j	3190 <ProcessCompleteFrame+0x88>
    318e:	0001                	nop
    3190:	fec42783          	lw	a5,-20(s0)
    3194:	43dc                	lw	a5,4(a5)
    3196:	cb99                	beqz	a5,31ac <ProcessCompleteFrame+0xa4>
    3198:	fec42783          	lw	a5,-20(s0)
    319c:	43dc                	lw	a5,4(a5)
    319e:	853e                	mv	a0,a5
    31a0:	4fe020ef          	jal	ra,569e <free>
    31a4:	fec42783          	lw	a5,-20(s0)
    31a8:	0007a223          	sw	zero,4(a5)
    31ac:	0001                	nop
    31ae:	50b2                	lw	ra,44(sp)
    31b0:	5422                	lw	s0,40(sp)
    31b2:	6145                	addi	sp,sp,48
    31b4:	8082                	ret

000031b6 <ExecuteLocalCommand>:
    31b6:	7179                	addi	sp,sp,-48
    31b8:	d606                	sw	ra,44(sp)
    31ba:	d422                	sw	s0,40(sp)
    31bc:	1800                	addi	s0,sp,48
    31be:	87aa                	mv	a5,a0
    31c0:	fcb42c23          	sw	a1,-40(s0)
    31c4:	8732                	mv	a4,a2
    31c6:	fcf40fa3          	sb	a5,-33(s0)
    31ca:	87ba                	mv	a5,a4
    31cc:	fcf40f23          	sb	a5,-34(s0)
    31d0:	fe042623          	sw	zero,-20(s0)
    31d4:	a089                	j	3216 <ExecuteLocalCommand+0x60>
    31d6:	6799                	lui	a5,0x6
    31d8:	fec42703          	lw	a4,-20(s0)
    31dc:	070e                	slli	a4,a4,0x3
    31de:	1a078793          	addi	a5,a5,416 # 61a0 <cmd_handlers>
    31e2:	97ba                	add	a5,a5,a4
    31e4:	239c                	lbu	a5,0(a5)
    31e6:	fdf44703          	lbu	a4,-33(s0)
    31ea:	02f71163          	bne	a4,a5,320c <ExecuteLocalCommand+0x56>
    31ee:	6719                	lui	a4,0x6
    31f0:	fec42783          	lw	a5,-20(s0)
    31f4:	1a070713          	addi	a4,a4,416 # 61a0 <cmd_handlers>
    31f8:	078e                	slli	a5,a5,0x3
    31fa:	97ba                	add	a5,a5,a4
    31fc:	43d8                	lw	a4,4(a5)
    31fe:	fde44783          	lbu	a5,-34(s0)
    3202:	85be                	mv	a1,a5
    3204:	fd842503          	lw	a0,-40(s0)
    3208:	9702                	jalr	a4
    320a:	a819                	j	3220 <ExecuteLocalCommand+0x6a>
    320c:	fec42783          	lw	a5,-20(s0)
    3210:	0785                	addi	a5,a5,1
    3212:	fef42623          	sw	a5,-20(s0)
    3216:	fec42703          	lw	a4,-20(s0)
    321a:	4795                	li	a5,5
    321c:	fae7fde3          	bgeu	a5,a4,31d6 <ExecuteLocalCommand+0x20>
    3220:	50b2                	lw	ra,44(sp)
    3222:	5422                	lw	s0,40(sp)
    3224:	6145                	addi	sp,sp,48
    3226:	8082                	ret

00003228 <ForwardToDevice>:
    3228:	7169                	addi	sp,sp,-304
    322a:	12112623          	sw	ra,300(sp)
    322e:	12812423          	sw	s0,296(sp)
    3232:	1a00                	addi	s0,sp,304
    3234:	eca42e23          	sw	a0,-292(s0)
    3238:	ecb42c23          	sw	a1,-296(s0)
    323c:	edc42783          	lw	a5,-292(s0)
    3240:	fef42223          	sw	a5,-28(s0)
    3244:	ee040793          	addi	a5,s0,-288
    3248:	fef42623          	sw	a5,-20(s0)
    324c:	fec42783          	lw	a5,-20(s0)
    3250:	00178713          	addi	a4,a5,1
    3254:	fee42623          	sw	a4,-20(s0)
    3258:	ed842703          	lw	a4,-296(s0)
    325c:	2318                	lbu	a4,0(a4)
    325e:	a398                	sb	a4,0(a5)
    3260:	fec42783          	lw	a5,-20(s0)
    3264:	00178713          	addi	a4,a5,1
    3268:	fee42623          	sw	a4,-20(s0)
    326c:	ed842703          	lw	a4,-296(s0)
    3270:	3318                	lbu	a4,1(a4)
    3272:	a398                	sb	a4,0(a5)
    3274:	fec42783          	lw	a5,-20(s0)
    3278:	00178713          	addi	a4,a5,1
    327c:	fee42623          	sw	a4,-20(s0)
    3280:	ed842703          	lw	a4,-296(s0)
    3284:	2338                	lbu	a4,2(a4)
    3286:	a398                	sb	a4,0(a5)
    3288:	fec42783          	lw	a5,-20(s0)
    328c:	00178713          	addi	a4,a5,1
    3290:	fee42623          	sw	a4,-20(s0)
    3294:	ed842703          	lw	a4,-296(s0)
    3298:	3338                	lbu	a4,3(a4)
    329a:	a398                	sb	a4,0(a5)
    329c:	ed842783          	lw	a5,-296(s0)
    32a0:	33bc                	lbu	a5,3(a5)
    32a2:	cb95                	beqz	a5,32d6 <ForwardToDevice+0xae>
    32a4:	ed842783          	lw	a5,-296(s0)
    32a8:	43dc                	lw	a5,4(a5)
    32aa:	c795                	beqz	a5,32d6 <ForwardToDevice+0xae>
    32ac:	ed842783          	lw	a5,-296(s0)
    32b0:	43d8                	lw	a4,4(a5)
    32b2:	ed842783          	lw	a5,-296(s0)
    32b6:	33bc                	lbu	a5,3(a5)
    32b8:	863e                	mv	a2,a5
    32ba:	85ba                	mv	a1,a4
    32bc:	fec42503          	lw	a0,-20(s0)
    32c0:	3e8020ef          	jal	ra,56a8 <memcpy>
    32c4:	ed842783          	lw	a5,-296(s0)
    32c8:	33bc                	lbu	a5,3(a5)
    32ca:	873e                	mv	a4,a5
    32cc:	fec42783          	lw	a5,-20(s0)
    32d0:	97ba                	add	a5,a5,a4
    32d2:	fef42623          	sw	a5,-20(s0)
    32d6:	fec42783          	lw	a5,-20(s0)
    32da:	00178713          	addi	a4,a5,1
    32de:	fee42623          	sw	a4,-20(s0)
    32e2:	ed842703          	lw	a4,-296(s0)
    32e6:	2718                	lbu	a4,8(a4)
    32e8:	a398                	sb	a4,0(a5)
    32ea:	ee040793          	addi	a5,s0,-288
    32ee:	fef42023          	sw	a5,-32(s0)
    32f2:	fec42703          	lw	a4,-20(s0)
    32f6:	fe042783          	lw	a5,-32(s0)
    32fa:	40f707b3          	sub	a5,a4,a5
    32fe:	07c2                	slli	a5,a5,0x10
    3300:	83c1                	srli	a5,a5,0x10
    3302:	85be                	mv	a1,a5
    3304:	fe042503          	lw	a0,-32(s0)
    3308:	336010ef          	jal	ra,463e <USART1_SendString_Len>
    330c:	ee040793          	addi	a5,s0,-288
    3310:	fef42423          	sw	a5,-24(s0)
    3314:	a80d                	j	3346 <ForwardToDevice+0x11e>
    3316:	fe842783          	lw	a5,-24(s0)
    331a:	239c                	lbu	a5,0(a5)
    331c:	07c2                	slli	a5,a5,0x10
    331e:	83c1                	srli	a5,a5,0x10
    3320:	85be                	mv	a1,a5
    3322:	fe442503          	lw	a0,-28(s0)
    3326:	ffaff0ef          	jal	ra,2b20 <USART_SendData>
    332a:	0001                	nop
    332c:	08000593          	li	a1,128
    3330:	fe442503          	lw	a0,-28(s0)
    3334:	83dff0ef          	jal	ra,2b70 <USART_GetFlagStatus>
    3338:	87aa                	mv	a5,a0
    333a:	dbed                	beqz	a5,332c <ForwardToDevice+0x104>
    333c:	fe842783          	lw	a5,-24(s0)
    3340:	0785                	addi	a5,a5,1
    3342:	fef42423          	sw	a5,-24(s0)
    3346:	fe842703          	lw	a4,-24(s0)
    334a:	fec42783          	lw	a5,-20(s0)
    334e:	fcf764e3          	bltu	a4,a5,3316 <ForwardToDevice+0xee>
    3352:	0001                	nop
    3354:	12c12083          	lw	ra,300(sp)
    3358:	12812403          	lw	s0,296(sp)
    335c:	6155                	addi	sp,sp,304
    335e:	8082                	ret

00003360 <HandleExtColCommand>:
    3360:	1101                	addi	sp,sp,-32
    3362:	ce06                	sw	ra,28(sp)
    3364:	cc22                	sw	s0,24(sp)
    3366:	1000                	addi	s0,sp,32
    3368:	fea42623          	sw	a0,-20(s0)
    336c:	87ae                	mv	a5,a1
    336e:	fef405a3          	sb	a5,-21(s0)
    3372:	6585                	lui	a1,0x1
    3374:	400117b7          	lui	a5,0x40011
    3378:	c0078513          	addi	a0,a5,-1024 # 40010c00 <_eusrstack+0x20008c00>
    337c:	aaafe0ef          	jal	ra,1626 <GPIO_ResetBits>
    3380:	feb44703          	lbu	a4,-21(s0)
    3384:	4799                	li	a5,6
    3386:	20f71663          	bne	a4,a5,3592 <HandleExtColCommand+0x232>
    338a:	fec42783          	lw	a5,-20(s0)
    338e:	2398                	lbu	a4,0(a5)
    3390:	4785                	li	a5,1
    3392:	00f71563          	bne	a4,a5,339c <HandleExtColCommand+0x3c>
    3396:	3b5000ef          	jal	ra,3f4a <Motor_Advanced>
    339a:	a811                	j	33ae <HandleExtColCommand+0x4e>
    339c:	fec42783          	lw	a5,-20(s0)
    33a0:	0785                	addi	a5,a5,1
    33a2:	2398                	lbu	a4,0(a5)
    33a4:	4785                	li	a5,1
    33a6:	00f71463          	bne	a4,a5,33ae <HandleExtColCommand+0x4e>
    33aa:	3d3000ef          	jal	ra,3f7c <Motor_Back>
    33ae:	fec42783          	lw	a5,-20(s0)
    33b2:	0789                	addi	a5,a5,2
    33b4:	2398                	lbu	a4,0(a5)
    33b6:	4785                	li	a5,1
    33b8:	08f71163          	bne	a4,a5,343a <HandleExtColCommand+0xda>
    33bc:	81a18703          	lb	a4,-2022(gp) # 200001ba <current_angle_forward>
    33c0:	04500793          	li	a5,69
    33c4:	0ee7ce63          	blt	a5,a4,34c0 <HandleExtColCommand+0x160>
    33c8:	81a18783          	lb	a5,-2022(gp) # 200001ba <current_angle_forward>
    33cc:	0ff7f793          	andi	a5,a5,255
    33d0:	0789                	addi	a5,a5,2
    33d2:	0ff7f793          	andi	a5,a5,255
    33d6:	01879713          	slli	a4,a5,0x18
    33da:	8761                	srai	a4,a4,0x18
    33dc:	80e18d23          	sb	a4,-2022(gp) # 200001ba <current_angle_forward>
    33e0:	81a18783          	lb	a5,-2022(gp) # 200001ba <current_angle_forward>
    33e4:	07c2                	slli	a5,a5,0x10
    33e6:	87c1                	srai	a5,a5,0x10
    33e8:	85be                	mv	a1,a5
    33ea:	4501                	li	a0,0
    33ec:	6ff000ef          	jal	ra,42ea <SetServerAngle>
    33f0:	81a18783          	lb	a5,-2022(gp) # 200001ba <current_angle_forward>
    33f4:	07c2                	slli	a5,a5,0x10
    33f6:	83c1                	srli	a5,a5,0x10
    33f8:	40f007b3          	neg	a5,a5
    33fc:	07c2                	slli	a5,a5,0x10
    33fe:	83c1                	srli	a5,a5,0x10
    3400:	07c2                	slli	a5,a5,0x10
    3402:	87c1                	srai	a5,a5,0x10
    3404:	85be                	mv	a1,a5
    3406:	4509                	li	a0,2
    3408:	6e3000ef          	jal	ra,42ea <SetServerAngle>
    340c:	81a18783          	lb	a5,-2022(gp) # 200001ba <current_angle_forward>
    3410:	07c2                	slli	a5,a5,0x10
    3412:	87c1                	srai	a5,a5,0x10
    3414:	85be                	mv	a1,a5
    3416:	450d                	li	a0,3
    3418:	6d3000ef          	jal	ra,42ea <SetServerAngle>
    341c:	81a18783          	lb	a5,-2022(gp) # 200001ba <current_angle_forward>
    3420:	07c2                	slli	a5,a5,0x10
    3422:	83c1                	srli	a5,a5,0x10
    3424:	40f007b3          	neg	a5,a5
    3428:	07c2                	slli	a5,a5,0x10
    342a:	83c1                	srli	a5,a5,0x10
    342c:	07c2                	slli	a5,a5,0x10
    342e:	87c1                	srai	a5,a5,0x10
    3430:	85be                	mv	a1,a5
    3432:	4515                	li	a0,5
    3434:	6b7000ef          	jal	ra,42ea <SetServerAngle>
    3438:	a061                	j	34c0 <HandleExtColCommand+0x160>
    343a:	fec42783          	lw	a5,-20(s0)
    343e:	078d                	addi	a5,a5,3
    3440:	2398                	lbu	a4,0(a5)
    3442:	4785                	li	a5,1
    3444:	06f71e63          	bne	a4,a5,34c0 <HandleExtColCommand+0x160>
    3448:	81a18783          	lb	a5,-2022(gp) # 200001ba <current_angle_forward>
    344c:	06f05a63          	blez	a5,34c0 <HandleExtColCommand+0x160>
    3450:	81a18783          	lb	a5,-2022(gp) # 200001ba <current_angle_forward>
    3454:	0ff7f793          	andi	a5,a5,255
    3458:	17f9                	addi	a5,a5,-2
    345a:	0ff7f793          	andi	a5,a5,255
    345e:	01879713          	slli	a4,a5,0x18
    3462:	8761                	srai	a4,a4,0x18
    3464:	80e18d23          	sb	a4,-2022(gp) # 200001ba <current_angle_forward>
    3468:	81a18783          	lb	a5,-2022(gp) # 200001ba <current_angle_forward>
    346c:	07c2                	slli	a5,a5,0x10
    346e:	87c1                	srai	a5,a5,0x10
    3470:	85be                	mv	a1,a5
    3472:	4501                	li	a0,0
    3474:	677000ef          	jal	ra,42ea <SetServerAngle>
    3478:	81a18783          	lb	a5,-2022(gp) # 200001ba <current_angle_forward>
    347c:	07c2                	slli	a5,a5,0x10
    347e:	83c1                	srli	a5,a5,0x10
    3480:	40f007b3          	neg	a5,a5
    3484:	07c2                	slli	a5,a5,0x10
    3486:	83c1                	srli	a5,a5,0x10
    3488:	07c2                	slli	a5,a5,0x10
    348a:	87c1                	srai	a5,a5,0x10
    348c:	85be                	mv	a1,a5
    348e:	4509                	li	a0,2
    3490:	65b000ef          	jal	ra,42ea <SetServerAngle>
    3494:	81a18783          	lb	a5,-2022(gp) # 200001ba <current_angle_forward>
    3498:	07c2                	slli	a5,a5,0x10
    349a:	87c1                	srai	a5,a5,0x10
    349c:	85be                	mv	a1,a5
    349e:	450d                	li	a0,3
    34a0:	64b000ef          	jal	ra,42ea <SetServerAngle>
    34a4:	81a18783          	lb	a5,-2022(gp) # 200001ba <current_angle_forward>
    34a8:	07c2                	slli	a5,a5,0x10
    34aa:	83c1                	srli	a5,a5,0x10
    34ac:	40f007b3          	neg	a5,a5
    34b0:	07c2                	slli	a5,a5,0x10
    34b2:	83c1                	srli	a5,a5,0x10
    34b4:	07c2                	slli	a5,a5,0x10
    34b6:	87c1                	srai	a5,a5,0x10
    34b8:	85be                	mv	a1,a5
    34ba:	4515                	li	a0,5
    34bc:	62f000ef          	jal	ra,42ea <SetServerAngle>
    34c0:	fec42783          	lw	a5,-20(s0)
    34c4:	0791                	addi	a5,a5,4
    34c6:	2398                	lbu	a4,0(a5)
    34c8:	4785                	li	a5,1
    34ca:	06f71163          	bne	a4,a5,352c <HandleExtColCommand+0x1cc>
    34ce:	81b18703          	lb	a4,-2021(gp) # 200001bb <current_angle_back>
    34d2:	05900793          	li	a5,89
    34d6:	0ae7ce63          	blt	a5,a4,3592 <HandleExtColCommand+0x232>
    34da:	81b18783          	lb	a5,-2021(gp) # 200001bb <current_angle_back>
    34de:	0ff7f793          	andi	a5,a5,255
    34e2:	0789                	addi	a5,a5,2
    34e4:	0ff7f793          	andi	a5,a5,255
    34e8:	01879713          	slli	a4,a5,0x18
    34ec:	8761                	srai	a4,a4,0x18
    34ee:	80e18da3          	sb	a4,-2021(gp) # 200001bb <current_angle_back>
    34f2:	81b18783          	lb	a5,-2021(gp) # 200001bb <current_angle_back>
    34f6:	07c2                	slli	a5,a5,0x10
    34f8:	83c1                	srli	a5,a5,0x10
    34fa:	40f007b3          	neg	a5,a5
    34fe:	07c2                	slli	a5,a5,0x10
    3500:	83c1                	srli	a5,a5,0x10
    3502:	07c2                	slli	a5,a5,0x10
    3504:	87c1                	srai	a5,a5,0x10
    3506:	85be                	mv	a1,a5
    3508:	4505                	li	a0,1
    350a:	5e1000ef          	jal	ra,42ea <SetServerAngle>
    350e:	81b18783          	lb	a5,-2021(gp) # 200001bb <current_angle_back>
    3512:	07c2                	slli	a5,a5,0x10
    3514:	83c1                	srli	a5,a5,0x10
    3516:	40f007b3          	neg	a5,a5
    351a:	07c2                	slli	a5,a5,0x10
    351c:	83c1                	srli	a5,a5,0x10
    351e:	07c2                	slli	a5,a5,0x10
    3520:	87c1                	srai	a5,a5,0x10
    3522:	85be                	mv	a1,a5
    3524:	4511                	li	a0,4
    3526:	5c5000ef          	jal	ra,42ea <SetServerAngle>
    352a:	a0a5                	j	3592 <HandleExtColCommand+0x232>
    352c:	fec42783          	lw	a5,-20(s0)
    3530:	0795                	addi	a5,a5,5
    3532:	2398                	lbu	a4,0(a5)
    3534:	4785                	li	a5,1
    3536:	04f71e63          	bne	a4,a5,3592 <HandleExtColCommand+0x232>
    353a:	81b18783          	lb	a5,-2021(gp) # 200001bb <current_angle_back>
    353e:	04f05a63          	blez	a5,3592 <HandleExtColCommand+0x232>
    3542:	81b18783          	lb	a5,-2021(gp) # 200001bb <current_angle_back>
    3546:	0ff7f793          	andi	a5,a5,255
    354a:	17f9                	addi	a5,a5,-2
    354c:	0ff7f793          	andi	a5,a5,255
    3550:	01879713          	slli	a4,a5,0x18
    3554:	8761                	srai	a4,a4,0x18
    3556:	80e18da3          	sb	a4,-2021(gp) # 200001bb <current_angle_back>
    355a:	81b18783          	lb	a5,-2021(gp) # 200001bb <current_angle_back>
    355e:	07c2                	slli	a5,a5,0x10
    3560:	83c1                	srli	a5,a5,0x10
    3562:	40f007b3          	neg	a5,a5
    3566:	07c2                	slli	a5,a5,0x10
    3568:	83c1                	srli	a5,a5,0x10
    356a:	07c2                	slli	a5,a5,0x10
    356c:	87c1                	srai	a5,a5,0x10
    356e:	85be                	mv	a1,a5
    3570:	4505                	li	a0,1
    3572:	579000ef          	jal	ra,42ea <SetServerAngle>
    3576:	81b18783          	lb	a5,-2021(gp) # 200001bb <current_angle_back>
    357a:	07c2                	slli	a5,a5,0x10
    357c:	83c1                	srli	a5,a5,0x10
    357e:	40f007b3          	neg	a5,a5
    3582:	07c2                	slli	a5,a5,0x10
    3584:	83c1                	srli	a5,a5,0x10
    3586:	07c2                	slli	a5,a5,0x10
    3588:	87c1                	srai	a5,a5,0x10
    358a:	85be                	mv	a1,a5
    358c:	4511                	li	a0,4
    358e:	55d000ef          	jal	ra,42ea <SetServerAngle>
    3592:	0001                	nop
    3594:	40f2                	lw	ra,28(sp)
    3596:	4462                	lw	s0,24(sp)
    3598:	6105                	addi	sp,sp,32
    359a:	8082                	ret

0000359c <HandleExtStopCommand>:
    359c:	1101                	addi	sp,sp,-32
    359e:	ce06                	sw	ra,28(sp)
    35a0:	cc22                	sw	s0,24(sp)
    35a2:	1000                	addi	s0,sp,32
    35a4:	fea42623          	sw	a0,-20(s0)
    35a8:	87ae                	mv	a5,a1
    35aa:	fef405a3          	sb	a5,-21(s0)
    35ae:	feb44703          	lbu	a4,-21(s0)
    35b2:	4785                	li	a5,1
    35b4:	00f71a63          	bne	a4,a5,35c8 <HandleExtStopCommand+0x2c>
    35b8:	fec42783          	lw	a5,-20(s0)
    35bc:	2398                	lbu	a4,0(a5)
    35be:	4785                	li	a5,1
    35c0:	00f71463          	bne	a4,a5,35c8 <HandleExtStopCommand+0x2c>
    35c4:	1eb000ef          	jal	ra,3fae <Motor_Stop>
    35c8:	0001                	nop
    35ca:	40f2                	lw	ra,28(sp)
    35cc:	4462                	lw	s0,24(sp)
    35ce:	6105                	addi	sp,sp,32
    35d0:	8082                	ret

000035d2 <HandleExtMochaCommand>:
    35d2:	1101                	addi	sp,sp,-32
    35d4:	ce22                	sw	s0,28(sp)
    35d6:	1000                	addi	s0,sp,32
    35d8:	fea42623          	sw	a0,-20(s0)
    35dc:	87ae                	mv	a5,a1
    35de:	fef405a3          	sb	a5,-21(s0)
    35e2:	0001                	nop
    35e4:	4472                	lw	s0,28(sp)
    35e6:	6105                	addi	sp,sp,32
    35e8:	8082                	ret

000035ea <HandleEspSpocolCommand>:
    35ea:	1101                	addi	sp,sp,-32
    35ec:	ce06                	sw	ra,28(sp)
    35ee:	cc22                	sw	s0,24(sp)
    35f0:	1000                	addi	s0,sp,32
    35f2:	fea42623          	sw	a0,-20(s0)
    35f6:	87ae                	mv	a5,a1
    35f8:	fef405a3          	sb	a5,-21(s0)
    35fc:	feb44703          	lbu	a4,-21(s0)
    3600:	4799                	li	a5,6
    3602:	22f71063          	bne	a4,a5,3822 <HandleEspSpocolCommand+0x238>
    3606:	fec42783          	lw	a5,-20(s0)
    360a:	2398                	lbu	a4,0(a5)
    360c:	4785                	li	a5,1
    360e:	00f71a63          	bne	a4,a5,3622 <HandleEspSpocolCommand+0x38>
    3612:	139000ef          	jal	ra,3f4a <Motor_Advanced>
    3616:	6799                	lui	a5,0x6
    3618:	16478513          	addi	a0,a5,356 # 6164 <_malloc_usable_size_r+0x5c>
    361c:	0b2010ef          	jal	ra,46ce <USART1_Printf>
    3620:	a839                	j	363e <HandleEspSpocolCommand+0x54>
    3622:	fec42783          	lw	a5,-20(s0)
    3626:	0785                	addi	a5,a5,1
    3628:	2398                	lbu	a4,0(a5)
    362a:	4785                	li	a5,1
    362c:	00f71963          	bne	a4,a5,363e <HandleEspSpocolCommand+0x54>
    3630:	14d000ef          	jal	ra,3f7c <Motor_Back>
    3634:	6799                	lui	a5,0x6
    3636:	17478513          	addi	a0,a5,372 # 6174 <_malloc_usable_size_r+0x6c>
    363a:	094010ef          	jal	ra,46ce <USART1_Printf>
    363e:	fec42783          	lw	a5,-20(s0)
    3642:	0789                	addi	a5,a5,2
    3644:	2398                	lbu	a4,0(a5)
    3646:	4785                	li	a5,1
    3648:	08f71163          	bne	a4,a5,36ca <HandleEspSpocolCommand+0xe0>
    364c:	81a18703          	lb	a4,-2022(gp) # 200001ba <current_angle_forward>
    3650:	04500793          	li	a5,69
    3654:	0ee7ce63          	blt	a5,a4,3750 <HandleEspSpocolCommand+0x166>
    3658:	81a18783          	lb	a5,-2022(gp) # 200001ba <current_angle_forward>
    365c:	0ff7f793          	andi	a5,a5,255
    3660:	0789                	addi	a5,a5,2
    3662:	0ff7f793          	andi	a5,a5,255
    3666:	01879713          	slli	a4,a5,0x18
    366a:	8761                	srai	a4,a4,0x18
    366c:	80e18d23          	sb	a4,-2022(gp) # 200001ba <current_angle_forward>
    3670:	81a18783          	lb	a5,-2022(gp) # 200001ba <current_angle_forward>
    3674:	07c2                	slli	a5,a5,0x10
    3676:	87c1                	srai	a5,a5,0x10
    3678:	85be                	mv	a1,a5
    367a:	4501                	li	a0,0
    367c:	46f000ef          	jal	ra,42ea <SetServerAngle>
    3680:	81a18783          	lb	a5,-2022(gp) # 200001ba <current_angle_forward>
    3684:	07c2                	slli	a5,a5,0x10
    3686:	83c1                	srli	a5,a5,0x10
    3688:	40f007b3          	neg	a5,a5
    368c:	07c2                	slli	a5,a5,0x10
    368e:	83c1                	srli	a5,a5,0x10
    3690:	07c2                	slli	a5,a5,0x10
    3692:	87c1                	srai	a5,a5,0x10
    3694:	85be                	mv	a1,a5
    3696:	4509                	li	a0,2
    3698:	453000ef          	jal	ra,42ea <SetServerAngle>
    369c:	81a18783          	lb	a5,-2022(gp) # 200001ba <current_angle_forward>
    36a0:	07c2                	slli	a5,a5,0x10
    36a2:	87c1                	srai	a5,a5,0x10
    36a4:	85be                	mv	a1,a5
    36a6:	450d                	li	a0,3
    36a8:	443000ef          	jal	ra,42ea <SetServerAngle>
    36ac:	81a18783          	lb	a5,-2022(gp) # 200001ba <current_angle_forward>
    36b0:	07c2                	slli	a5,a5,0x10
    36b2:	83c1                	srli	a5,a5,0x10
    36b4:	40f007b3          	neg	a5,a5
    36b8:	07c2                	slli	a5,a5,0x10
    36ba:	83c1                	srli	a5,a5,0x10
    36bc:	07c2                	slli	a5,a5,0x10
    36be:	87c1                	srai	a5,a5,0x10
    36c0:	85be                	mv	a1,a5
    36c2:	4515                	li	a0,5
    36c4:	427000ef          	jal	ra,42ea <SetServerAngle>
    36c8:	a061                	j	3750 <HandleEspSpocolCommand+0x166>
    36ca:	fec42783          	lw	a5,-20(s0)
    36ce:	078d                	addi	a5,a5,3
    36d0:	2398                	lbu	a4,0(a5)
    36d2:	4785                	li	a5,1
    36d4:	06f71e63          	bne	a4,a5,3750 <HandleEspSpocolCommand+0x166>
    36d8:	81a18783          	lb	a5,-2022(gp) # 200001ba <current_angle_forward>
    36dc:	06f05a63          	blez	a5,3750 <HandleEspSpocolCommand+0x166>
    36e0:	81a18783          	lb	a5,-2022(gp) # 200001ba <current_angle_forward>
    36e4:	0ff7f793          	andi	a5,a5,255
    36e8:	17f9                	addi	a5,a5,-2
    36ea:	0ff7f793          	andi	a5,a5,255
    36ee:	01879713          	slli	a4,a5,0x18
    36f2:	8761                	srai	a4,a4,0x18
    36f4:	80e18d23          	sb	a4,-2022(gp) # 200001ba <current_angle_forward>
    36f8:	81a18783          	lb	a5,-2022(gp) # 200001ba <current_angle_forward>
    36fc:	07c2                	slli	a5,a5,0x10
    36fe:	87c1                	srai	a5,a5,0x10
    3700:	85be                	mv	a1,a5
    3702:	4501                	li	a0,0
    3704:	3e7000ef          	jal	ra,42ea <SetServerAngle>
    3708:	81a18783          	lb	a5,-2022(gp) # 200001ba <current_angle_forward>
    370c:	07c2                	slli	a5,a5,0x10
    370e:	83c1                	srli	a5,a5,0x10
    3710:	40f007b3          	neg	a5,a5
    3714:	07c2                	slli	a5,a5,0x10
    3716:	83c1                	srli	a5,a5,0x10
    3718:	07c2                	slli	a5,a5,0x10
    371a:	87c1                	srai	a5,a5,0x10
    371c:	85be                	mv	a1,a5
    371e:	4509                	li	a0,2
    3720:	3cb000ef          	jal	ra,42ea <SetServerAngle>
    3724:	81a18783          	lb	a5,-2022(gp) # 200001ba <current_angle_forward>
    3728:	07c2                	slli	a5,a5,0x10
    372a:	87c1                	srai	a5,a5,0x10
    372c:	85be                	mv	a1,a5
    372e:	450d                	li	a0,3
    3730:	3bb000ef          	jal	ra,42ea <SetServerAngle>
    3734:	81a18783          	lb	a5,-2022(gp) # 200001ba <current_angle_forward>
    3738:	07c2                	slli	a5,a5,0x10
    373a:	83c1                	srli	a5,a5,0x10
    373c:	40f007b3          	neg	a5,a5
    3740:	07c2                	slli	a5,a5,0x10
    3742:	83c1                	srli	a5,a5,0x10
    3744:	07c2                	slli	a5,a5,0x10
    3746:	87c1                	srai	a5,a5,0x10
    3748:	85be                	mv	a1,a5
    374a:	4515                	li	a0,5
    374c:	39f000ef          	jal	ra,42ea <SetServerAngle>
    3750:	fec42783          	lw	a5,-20(s0)
    3754:	0791                	addi	a5,a5,4
    3756:	2398                	lbu	a4,0(a5)
    3758:	4785                	li	a5,1
    375a:	06f71163          	bne	a4,a5,37bc <HandleEspSpocolCommand+0x1d2>
    375e:	81b18703          	lb	a4,-2021(gp) # 200001bb <current_angle_back>
    3762:	05900793          	li	a5,89
    3766:	0ae7ce63          	blt	a5,a4,3822 <HandleEspSpocolCommand+0x238>
    376a:	81b18783          	lb	a5,-2021(gp) # 200001bb <current_angle_back>
    376e:	0ff7f793          	andi	a5,a5,255
    3772:	0789                	addi	a5,a5,2
    3774:	0ff7f793          	andi	a5,a5,255
    3778:	01879713          	slli	a4,a5,0x18
    377c:	8761                	srai	a4,a4,0x18
    377e:	80e18da3          	sb	a4,-2021(gp) # 200001bb <current_angle_back>
    3782:	81b18783          	lb	a5,-2021(gp) # 200001bb <current_angle_back>
    3786:	07c2                	slli	a5,a5,0x10
    3788:	83c1                	srli	a5,a5,0x10
    378a:	40f007b3          	neg	a5,a5
    378e:	07c2                	slli	a5,a5,0x10
    3790:	83c1                	srli	a5,a5,0x10
    3792:	07c2                	slli	a5,a5,0x10
    3794:	87c1                	srai	a5,a5,0x10
    3796:	85be                	mv	a1,a5
    3798:	4505                	li	a0,1
    379a:	351000ef          	jal	ra,42ea <SetServerAngle>
    379e:	81b18783          	lb	a5,-2021(gp) # 200001bb <current_angle_back>
    37a2:	07c2                	slli	a5,a5,0x10
    37a4:	83c1                	srli	a5,a5,0x10
    37a6:	40f007b3          	neg	a5,a5
    37aa:	07c2                	slli	a5,a5,0x10
    37ac:	83c1                	srli	a5,a5,0x10
    37ae:	07c2                	slli	a5,a5,0x10
    37b0:	87c1                	srai	a5,a5,0x10
    37b2:	85be                	mv	a1,a5
    37b4:	4511                	li	a0,4
    37b6:	335000ef          	jal	ra,42ea <SetServerAngle>
    37ba:	a0a5                	j	3822 <HandleEspSpocolCommand+0x238>
    37bc:	fec42783          	lw	a5,-20(s0)
    37c0:	0795                	addi	a5,a5,5
    37c2:	2398                	lbu	a4,0(a5)
    37c4:	4785                	li	a5,1
    37c6:	04f71e63          	bne	a4,a5,3822 <HandleEspSpocolCommand+0x238>
    37ca:	81b18783          	lb	a5,-2021(gp) # 200001bb <current_angle_back>
    37ce:	04f05a63          	blez	a5,3822 <HandleEspSpocolCommand+0x238>
    37d2:	81b18783          	lb	a5,-2021(gp) # 200001bb <current_angle_back>
    37d6:	0ff7f793          	andi	a5,a5,255
    37da:	17f9                	addi	a5,a5,-2
    37dc:	0ff7f793          	andi	a5,a5,255
    37e0:	01879713          	slli	a4,a5,0x18
    37e4:	8761                	srai	a4,a4,0x18
    37e6:	80e18da3          	sb	a4,-2021(gp) # 200001bb <current_angle_back>
    37ea:	81b18783          	lb	a5,-2021(gp) # 200001bb <current_angle_back>
    37ee:	07c2                	slli	a5,a5,0x10
    37f0:	83c1                	srli	a5,a5,0x10
    37f2:	40f007b3          	neg	a5,a5
    37f6:	07c2                	slli	a5,a5,0x10
    37f8:	83c1                	srli	a5,a5,0x10
    37fa:	07c2                	slli	a5,a5,0x10
    37fc:	87c1                	srai	a5,a5,0x10
    37fe:	85be                	mv	a1,a5
    3800:	4505                	li	a0,1
    3802:	2e9000ef          	jal	ra,42ea <SetServerAngle>
    3806:	81b18783          	lb	a5,-2021(gp) # 200001bb <current_angle_back>
    380a:	07c2                	slli	a5,a5,0x10
    380c:	83c1                	srli	a5,a5,0x10
    380e:	40f007b3          	neg	a5,a5
    3812:	07c2                	slli	a5,a5,0x10
    3814:	83c1                	srli	a5,a5,0x10
    3816:	07c2                	slli	a5,a5,0x10
    3818:	87c1                	srai	a5,a5,0x10
    381a:	85be                	mv	a1,a5
    381c:	4511                	li	a0,4
    381e:	2cd000ef          	jal	ra,42ea <SetServerAngle>
    3822:	0001                	nop
    3824:	40f2                	lw	ra,28(sp)
    3826:	4462                	lw	s0,24(sp)
    3828:	6105                	addi	sp,sp,32
    382a:	8082                	ret

0000382c <HandleEspStopCommand>:
    382c:	1101                	addi	sp,sp,-32
    382e:	ce06                	sw	ra,28(sp)
    3830:	cc22                	sw	s0,24(sp)
    3832:	1000                	addi	s0,sp,32
    3834:	fea42623          	sw	a0,-20(s0)
    3838:	87ae                	mv	a5,a1
    383a:	fef405a3          	sb	a5,-21(s0)
    383e:	feb44703          	lbu	a4,-21(s0)
    3842:	4785                	li	a5,1
    3844:	00f71d63          	bne	a4,a5,385e <HandleEspStopCommand+0x32>
    3848:	fec42783          	lw	a5,-20(s0)
    384c:	239c                	lbu	a5,0(a5)
    384e:	eb81                	bnez	a5,385e <HandleEspStopCommand+0x32>
    3850:	75e000ef          	jal	ra,3fae <Motor_Stop>
    3854:	6799                	lui	a5,0x6
    3856:	18078513          	addi	a0,a5,384 # 6180 <_malloc_usable_size_r+0x78>
    385a:	675000ef          	jal	ra,46ce <USART1_Printf>
    385e:	0001                	nop
    3860:	40f2                	lw	ra,28(sp)
    3862:	4462                	lw	s0,24(sp)
    3864:	6105                	addi	sp,sp,32
    3866:	8082                	ret

00003868 <HandleEspMochaCommand>:
    3868:	1101                	addi	sp,sp,-32
    386a:	ce22                	sw	s0,28(sp)
    386c:	1000                	addi	s0,sp,32
    386e:	fea42623          	sw	a0,-20(s0)
    3872:	87ae                	mv	a5,a1
    3874:	fef405a3          	sb	a5,-21(s0)
    3878:	0001                	nop
    387a:	4472                	lw	s0,28(sp)
    387c:	6105                	addi	sp,sp,32
    387e:	8082                	ret

00003880 <LED_Init>:
    3880:	1101                	addi	sp,sp,-32
    3882:	ce06                	sw	ra,28(sp)
    3884:	cc22                	sw	s0,24(sp)
    3886:	1000                	addi	s0,sp,32
    3888:	fe042223          	sw	zero,-28(s0)
    388c:	fe042423          	sw	zero,-24(s0)
    3890:	fe042623          	sw	zero,-20(s0)
    3894:	4585                	li	a1,1
    3896:	4521                	li	a0,8
    3898:	c66fe0ef          	jal	ra,1cfe <RCC_APB2PeriphClockCmd>
    389c:	47c1                	li	a5,16
    389e:	fef42623          	sw	a5,-20(s0)
    38a2:	6785                	lui	a5,0x1
    38a4:	fef41223          	sh	a5,-28(s0)
    38a8:	478d                	li	a5,3
    38aa:	fef42423          	sw	a5,-24(s0)
    38ae:	fe440793          	addi	a5,s0,-28
    38b2:	85be                	mv	a1,a5
    38b4:	400117b7          	lui	a5,0x40011
    38b8:	c0078513          	addi	a0,a5,-1024 # 40010c00 <_eusrstack+0x20008c00>
    38bc:	b27fd0ef          	jal	ra,13e2 <GPIO_Init>
    38c0:	6585                	lui	a1,0x1
    38c2:	400117b7          	lui	a5,0x40011
    38c6:	c0078513          	addi	a0,a5,-1024 # 40010c00 <_eusrstack+0x20008c00>
    38ca:	d3bfd0ef          	jal	ra,1604 <GPIO_SetBits>
    38ce:	0001                	nop
    38d0:	40f2                	lw	ra,28(sp)
    38d2:	4462                	lw	s0,24(sp)
    38d4:	6105                	addi	sp,sp,32
    38d6:	8082                	ret

000038d8 <TIM3_PWMOut_Init>:
    38d8:	715d                	addi	sp,sp,-80
    38da:	c686                	sw	ra,76(sp)
    38dc:	c4a2                	sw	s0,72(sp)
    38de:	0880                	addi	s0,sp,80
    38e0:	87aa                	mv	a5,a0
    38e2:	86ae                	mv	a3,a1
    38e4:	8732                	mv	a4,a2
    38e6:	faf41f23          	sh	a5,-66(s0)
    38ea:	87b6                	mv	a5,a3
    38ec:	faf41e23          	sh	a5,-68(s0)
    38f0:	87ba                	mv	a5,a4
    38f2:	faf41d23          	sh	a5,-70(s0)
    38f6:	fe042223          	sw	zero,-28(s0)
    38fa:	fe042423          	sw	zero,-24(s0)
    38fe:	fe042623          	sw	zero,-20(s0)
    3902:	fc042a23          	sw	zero,-44(s0)
    3906:	fc042c23          	sw	zero,-40(s0)
    390a:	fc042e23          	sw	zero,-36(s0)
    390e:	fe042023          	sw	zero,-32(s0)
    3912:	fc042423          	sw	zero,-56(s0)
    3916:	fc042623          	sw	zero,-52(s0)
    391a:	fc041823          	sh	zero,-48(s0)
    391e:	4585                	li	a1,1
    3920:	4531                	li	a0,12
    3922:	bdcfe0ef          	jal	ra,1cfe <RCC_APB2PeriphClockCmd>
    3926:	4585                	li	a1,1
    3928:	4509                	li	a0,2
    392a:	c1afe0ef          	jal	ra,1d44 <RCC_APB1PeriphClockCmd>
    392e:	0c000793          	li	a5,192
    3932:	fef41223          	sh	a5,-28(s0)
    3936:	47e1                	li	a5,24
    3938:	fef42623          	sw	a5,-20(s0)
    393c:	478d                	li	a5,3
    393e:	fef42423          	sw	a5,-24(s0)
    3942:	fe440793          	addi	a5,s0,-28
    3946:	85be                	mv	a1,a5
    3948:	400117b7          	lui	a5,0x40011
    394c:	80078513          	addi	a0,a5,-2048 # 40010800 <_eusrstack+0x20008800>
    3950:	a93fd0ef          	jal	ra,13e2 <GPIO_Init>
    3954:	478d                	li	a5,3
    3956:	fef41223          	sh	a5,-28(s0)
    395a:	fe440793          	addi	a5,s0,-28
    395e:	85be                	mv	a1,a5
    3960:	400117b7          	lui	a5,0x40011
    3964:	c0078513          	addi	a0,a5,-1024 # 40010c00 <_eusrstack+0x20008c00>
    3968:	a7bfd0ef          	jal	ra,13e2 <GPIO_Init>
    396c:	fbe45783          	lhu	a5,-66(s0)
    3970:	fcf41623          	sh	a5,-52(s0)
    3974:	fbc45783          	lhu	a5,-68(s0)
    3978:	fcf41423          	sh	a5,-56(s0)
    397c:	fc041723          	sh	zero,-50(s0)
    3980:	fc041523          	sh	zero,-54(s0)
    3984:	fc840793          	addi	a5,s0,-56
    3988:	85be                	mv	a1,a5
    398a:	400007b7          	lui	a5,0x40000
    398e:	40078513          	addi	a0,a5,1024 # 40000400 <_eusrstack+0x1fff8400>
    3992:	c3efe0ef          	jal	ra,1dd0 <TIM_TimeBaseInit>
    3996:	06000793          	li	a5,96
    399a:	fcf41a23          	sh	a5,-44(s0)
    399e:	4785                	li	a5,1
    39a0:	fcf41b23          	sh	a5,-42(s0)
    39a4:	fba45783          	lhu	a5,-70(s0)
    39a8:	fcf41d23          	sh	a5,-38(s0)
    39ac:	fc041e23          	sh	zero,-36(s0)
    39b0:	fd440793          	addi	a5,s0,-44
    39b4:	85be                	mv	a1,a5
    39b6:	400007b7          	lui	a5,0x40000
    39ba:	40078513          	addi	a0,a5,1024 # 40000400 <_eusrstack+0x1fff8400>
    39be:	d7afe0ef          	jal	ra,1f38 <TIM_OC1Init>
    39c2:	fd440793          	addi	a5,s0,-44
    39c6:	85be                	mv	a1,a5
    39c8:	400007b7          	lui	a5,0x40000
    39cc:	40078513          	addi	a0,a5,1024 # 40000400 <_eusrstack+0x1fff8400>
    39d0:	ee2fe0ef          	jal	ra,20b2 <TIM_OC2Init>
    39d4:	fd440793          	addi	a5,s0,-44
    39d8:	85be                	mv	a1,a5
    39da:	400007b7          	lui	a5,0x40000
    39de:	40078513          	addi	a0,a5,1024 # 40000400 <_eusrstack+0x1fff8400>
    39e2:	891fe0ef          	jal	ra,2272 <TIM_OC3Init>
    39e6:	fd440793          	addi	a5,s0,-44
    39ea:	85be                	mv	a1,a5
    39ec:	400007b7          	lui	a5,0x40000
    39f0:	40078513          	addi	a0,a5,1024 # 40000400 <_eusrstack+0x1fff8400>
    39f4:	a39fe0ef          	jal	ra,242c <TIM_OC4Init>
    39f8:	45a1                	li	a1,8
    39fa:	400007b7          	lui	a5,0x40000
    39fe:	40078513          	addi	a0,a5,1024 # 40000400 <_eusrstack+0x1fff8400>
    3a02:	c89fe0ef          	jal	ra,268a <TIM_OC1PreloadConfig>
    3a06:	45a1                	li	a1,8
    3a08:	400007b7          	lui	a5,0x40000
    3a0c:	40078513          	addi	a0,a5,1024 # 40000400 <_eusrstack+0x1fff8400>
    3a10:	cc3fe0ef          	jal	ra,26d2 <TIM_OC2PreloadConfig>
    3a14:	45a1                	li	a1,8
    3a16:	400007b7          	lui	a5,0x40000
    3a1a:	40078513          	addi	a0,a5,1024 # 40000400 <_eusrstack+0x1fff8400>
    3a1e:	d0bfe0ef          	jal	ra,2728 <TIM_OC3PreloadConfig>
    3a22:	45a1                	li	a1,8
    3a24:	400007b7          	lui	a5,0x40000
    3a28:	40078513          	addi	a0,a5,1024 # 40000400 <_eusrstack+0x1fff8400>
    3a2c:	d45fe0ef          	jal	ra,2770 <TIM_OC4PreloadConfig>
    3a30:	4585                	li	a1,1
    3a32:	400007b7          	lui	a5,0x40000
    3a36:	40078513          	addi	a0,a5,1024 # 40000400 <_eusrstack+0x1fff8400>
    3a3a:	b9ffe0ef          	jal	ra,25d8 <TIM_CtrlPWMOutputs>
    3a3e:	4585                	li	a1,1
    3a40:	400007b7          	lui	a5,0x40000
    3a44:	40078513          	addi	a0,a5,1024 # 40000400 <_eusrstack+0x1fff8400>
    3a48:	bf1fe0ef          	jal	ra,2638 <TIM_ARRPreloadConfig>
    3a4c:	4585                	li	a1,1
    3a4e:	400007b7          	lui	a5,0x40000
    3a52:	40078513          	addi	a0,a5,1024 # 40000400 <_eusrstack+0x1fff8400>
    3a56:	b33fe0ef          	jal	ra,2588 <TIM_Cmd>
    3a5a:	0001                	nop
    3a5c:	40b6                	lw	ra,76(sp)
    3a5e:	4426                	lw	s0,72(sp)
    3a60:	6161                	addi	sp,sp,80
    3a62:	8082                	ret

00003a64 <TIM4_PWMOut_Init>:
    3a64:	715d                	addi	sp,sp,-80
    3a66:	c686                	sw	ra,76(sp)
    3a68:	c4a2                	sw	s0,72(sp)
    3a6a:	0880                	addi	s0,sp,80
    3a6c:	87aa                	mv	a5,a0
    3a6e:	86ae                	mv	a3,a1
    3a70:	8732                	mv	a4,a2
    3a72:	faf41f23          	sh	a5,-66(s0)
    3a76:	87b6                	mv	a5,a3
    3a78:	faf41e23          	sh	a5,-68(s0)
    3a7c:	87ba                	mv	a5,a4
    3a7e:	faf41d23          	sh	a5,-70(s0)
    3a82:	fe042223          	sw	zero,-28(s0)
    3a86:	fe042423          	sw	zero,-24(s0)
    3a8a:	fe042623          	sw	zero,-20(s0)
    3a8e:	fc042a23          	sw	zero,-44(s0)
    3a92:	fc042c23          	sw	zero,-40(s0)
    3a96:	fc042e23          	sw	zero,-36(s0)
    3a9a:	fe042023          	sw	zero,-32(s0)
    3a9e:	fc042423          	sw	zero,-56(s0)
    3aa2:	fc042623          	sw	zero,-52(s0)
    3aa6:	fc041823          	sh	zero,-48(s0)
    3aaa:	4585                	li	a1,1
    3aac:	4521                	li	a0,8
    3aae:	a50fe0ef          	jal	ra,1cfe <RCC_APB2PeriphClockCmd>
    3ab2:	4585                	li	a1,1
    3ab4:	4511                	li	a0,4
    3ab6:	a8efe0ef          	jal	ra,1d44 <RCC_APB1PeriphClockCmd>
    3aba:	3c000793          	li	a5,960
    3abe:	fef41223          	sh	a5,-28(s0)
    3ac2:	47e1                	li	a5,24
    3ac4:	fef42623          	sw	a5,-20(s0)
    3ac8:	478d                	li	a5,3
    3aca:	fef42423          	sw	a5,-24(s0)
    3ace:	fe440793          	addi	a5,s0,-28
    3ad2:	85be                	mv	a1,a5
    3ad4:	400117b7          	lui	a5,0x40011
    3ad8:	c0078513          	addi	a0,a5,-1024 # 40010c00 <_eusrstack+0x20008c00>
    3adc:	907fd0ef          	jal	ra,13e2 <GPIO_Init>
    3ae0:	fbe45783          	lhu	a5,-66(s0)
    3ae4:	fcf41623          	sh	a5,-52(s0)
    3ae8:	fbc45783          	lhu	a5,-68(s0)
    3aec:	fcf41423          	sh	a5,-56(s0)
    3af0:	fc041723          	sh	zero,-50(s0)
    3af4:	fc041523          	sh	zero,-54(s0)
    3af8:	fc840793          	addi	a5,s0,-56
    3afc:	85be                	mv	a1,a5
    3afe:	400017b7          	lui	a5,0x40001
    3b02:	80078513          	addi	a0,a5,-2048 # 40000800 <_eusrstack+0x1fff8800>
    3b06:	acafe0ef          	jal	ra,1dd0 <TIM_TimeBaseInit>
    3b0a:	06000793          	li	a5,96
    3b0e:	fcf41a23          	sh	a5,-44(s0)
    3b12:	4785                	li	a5,1
    3b14:	fcf41b23          	sh	a5,-42(s0)
    3b18:	fba45783          	lhu	a5,-70(s0)
    3b1c:	fcf41d23          	sh	a5,-38(s0)
    3b20:	fc041e23          	sh	zero,-36(s0)
    3b24:	fd440793          	addi	a5,s0,-44
    3b28:	85be                	mv	a1,a5
    3b2a:	400017b7          	lui	a5,0x40001
    3b2e:	80078513          	addi	a0,a5,-2048 # 40000800 <_eusrstack+0x1fff8800>
    3b32:	c06fe0ef          	jal	ra,1f38 <TIM_OC1Init>
    3b36:	fd440793          	addi	a5,s0,-44
    3b3a:	85be                	mv	a1,a5
    3b3c:	400017b7          	lui	a5,0x40001
    3b40:	80078513          	addi	a0,a5,-2048 # 40000800 <_eusrstack+0x1fff8800>
    3b44:	d6efe0ef          	jal	ra,20b2 <TIM_OC2Init>
    3b48:	fd440793          	addi	a5,s0,-44
    3b4c:	85be                	mv	a1,a5
    3b4e:	400017b7          	lui	a5,0x40001
    3b52:	80078513          	addi	a0,a5,-2048 # 40000800 <_eusrstack+0x1fff8800>
    3b56:	f1cfe0ef          	jal	ra,2272 <TIM_OC3Init>
    3b5a:	fd440793          	addi	a5,s0,-44
    3b5e:	85be                	mv	a1,a5
    3b60:	400017b7          	lui	a5,0x40001
    3b64:	80078513          	addi	a0,a5,-2048 # 40000800 <_eusrstack+0x1fff8800>
    3b68:	8c5fe0ef          	jal	ra,242c <TIM_OC4Init>
    3b6c:	45a1                	li	a1,8
    3b6e:	400017b7          	lui	a5,0x40001
    3b72:	80078513          	addi	a0,a5,-2048 # 40000800 <_eusrstack+0x1fff8800>
    3b76:	b15fe0ef          	jal	ra,268a <TIM_OC1PreloadConfig>
    3b7a:	45a1                	li	a1,8
    3b7c:	400017b7          	lui	a5,0x40001
    3b80:	80078513          	addi	a0,a5,-2048 # 40000800 <_eusrstack+0x1fff8800>
    3b84:	b4ffe0ef          	jal	ra,26d2 <TIM_OC2PreloadConfig>
    3b88:	45a1                	li	a1,8
    3b8a:	400017b7          	lui	a5,0x40001
    3b8e:	80078513          	addi	a0,a5,-2048 # 40000800 <_eusrstack+0x1fff8800>
    3b92:	b97fe0ef          	jal	ra,2728 <TIM_OC3PreloadConfig>
    3b96:	45a1                	li	a1,8
    3b98:	400017b7          	lui	a5,0x40001
    3b9c:	80078513          	addi	a0,a5,-2048 # 40000800 <_eusrstack+0x1fff8800>
    3ba0:	bd1fe0ef          	jal	ra,2770 <TIM_OC4PreloadConfig>
    3ba4:	4585                	li	a1,1
    3ba6:	400017b7          	lui	a5,0x40001
    3baa:	80078513          	addi	a0,a5,-2048 # 40000800 <_eusrstack+0x1fff8800>
    3bae:	a2bfe0ef          	jal	ra,25d8 <TIM_CtrlPWMOutputs>
    3bb2:	4585                	li	a1,1
    3bb4:	400017b7          	lui	a5,0x40001
    3bb8:	80078513          	addi	a0,a5,-2048 # 40000800 <_eusrstack+0x1fff8800>
    3bbc:	a7dfe0ef          	jal	ra,2638 <TIM_ARRPreloadConfig>
    3bc0:	4585                	li	a1,1
    3bc2:	400017b7          	lui	a5,0x40001
    3bc6:	80078513          	addi	a0,a5,-2048 # 40000800 <_eusrstack+0x1fff8800>
    3bca:	9bffe0ef          	jal	ra,2588 <TIM_Cmd>
    3bce:	0001                	nop
    3bd0:	40b6                	lw	ra,76(sp)
    3bd2:	4426                	lw	s0,72(sp)
    3bd4:	6161                	addi	sp,sp,80
    3bd6:	8082                	ret

00003bd8 <MotorInit>:
    3bd8:	1141                	addi	sp,sp,-16
    3bda:	c606                	sw	ra,12(sp)
    3bdc:	c422                	sw	s0,8(sp)
    3bde:	0800                	addi	s0,sp,16
    3be0:	03200613          	li	a2,50
    3be4:	3bf00593          	li	a1,959
    3be8:	06300513          	li	a0,99
    3bec:	31f5                	jal	38d8 <TIM3_PWMOut_Init>
    3bee:	03200613          	li	a2,50
    3bf2:	3bf00593          	li	a1,959
    3bf6:	06300513          	li	a0,99
    3bfa:	35ad                	jal	3a64 <TIM4_PWMOut_Init>
    3bfc:	0001                	nop
    3bfe:	40b2                	lw	ra,12(sp)
    3c00:	4422                	lw	s0,8(sp)
    3c02:	0141                	addi	sp,sp,16
    3c04:	8082                	ret

00003c06 <setSpeed>:
    3c06:	7179                	addi	sp,sp,-48
    3c08:	d606                	sw	ra,44(sp)
    3c0a:	d422                	sw	s0,40(sp)
    3c0c:	1800                	addi	s0,sp,48
    3c0e:	87aa                	mv	a5,a0
    3c10:	872e                	mv	a4,a1
    3c12:	fcf41f23          	sh	a5,-34(s0)
    3c16:	87ba                	mv	a5,a4
    3c18:	fcf41e23          	sh	a5,-36(s0)
    3c1c:	fde45783          	lhu	a5,-34(s0)
    3c20:	32078063          	beqz	a5,3f40 <setSpeed+0x33a>
    3c24:	fde45703          	lhu	a4,-34(s0)
    3c28:	4791                	li	a5,4
    3c2a:	30e7eb63          	bltu	a5,a4,3f40 <setSpeed+0x33a>
    3c2e:	fdc41703          	lh	a4,-36(s0)
    3c32:	f9c00793          	li	a5,-100
    3c36:	02f74063          	blt	a4,a5,3c56 <setSpeed+0x50>
    3c3a:	fdc45783          	lhu	a5,-36(s0)
    3c3e:	01079693          	slli	a3,a5,0x10
    3c42:	86c1                	srai	a3,a3,0x10
    3c44:	06400713          	li	a4,100
    3c48:	00d75463          	bge	a4,a3,3c50 <setSpeed+0x4a>
    3c4c:	06400793          	li	a5,100
    3c50:	07c2                	slli	a5,a5,0x10
    3c52:	87c1                	srai	a5,a5,0x10
    3c54:	a019                	j	3c5a <setSpeed+0x54>
    3c56:	f9c00793          	li	a5,-100
    3c5a:	fcf41e23          	sh	a5,-36(s0)
    3c5e:	fde45783          	lhu	a5,-34(s0)
    3c62:	fff78713          	addi	a4,a5,-1
    3c66:	87ba                	mv	a5,a4
    3c68:	0786                	slli	a5,a5,0x1
    3c6a:	97ba                	add	a5,a5,a4
    3c6c:	078a                	slli	a5,a5,0x2
    3c6e:	6719                	lui	a4,0x6
    3c70:	1d070713          	addi	a4,a4,464 # 61d0 <config>
    3c74:	97ba                	add	a5,a5,a4
    3c76:	fef42623          	sw	a5,-20(s0)
    3c7a:	fdc41783          	lh	a5,-36(s0)
    3c7e:	0ef05363          	blez	a5,3d64 <setSpeed+0x15e>
    3c82:	fec42783          	lw	a5,-20(s0)
    3c86:	43dc                	lw	a5,4(a5)
    3c88:	4709                	li	a4,2
    3c8a:	02e78a63          	beq	a5,a4,3cbe <setSpeed+0xb8>
    3c8e:	4709                	li	a4,2
    3c90:	00f76663          	bltu	a4,a5,3c9c <setSpeed+0x96>
    3c94:	4705                	li	a4,1
    3c96:	00e78a63          	beq	a5,a4,3caa <setSpeed+0xa4>
    3c9a:	a085                	j	3cfa <setSpeed+0xf4>
    3c9c:	470d                	li	a4,3
    3c9e:	02e78a63          	beq	a5,a4,3cd2 <setSpeed+0xcc>
    3ca2:	4711                	li	a4,4
    3ca4:	04e78163          	beq	a5,a4,3ce6 <setSpeed+0xe0>
    3ca8:	a889                	j	3cfa <setSpeed+0xf4>
    3caa:	fec42783          	lw	a5,-20(s0)
    3cae:	439c                	lw	a5,0(a5)
    3cb0:	fdc45703          	lhu	a4,-36(s0)
    3cb4:	85ba                	mv	a1,a4
    3cb6:	853e                	mv	a0,a5
    3cb8:	b0ffe0ef          	jal	ra,27c6 <TIM_SetCompare1>
    3cbc:	a835                	j	3cf8 <setSpeed+0xf2>
    3cbe:	fec42783          	lw	a5,-20(s0)
    3cc2:	439c                	lw	a5,0(a5)
    3cc4:	fdc45703          	lhu	a4,-36(s0)
    3cc8:	85ba                	mv	a1,a4
    3cca:	853e                	mv	a0,a5
    3ccc:	b1dfe0ef          	jal	ra,27e8 <TIM_SetCompare2>
    3cd0:	a025                	j	3cf8 <setSpeed+0xf2>
    3cd2:	fec42783          	lw	a5,-20(s0)
    3cd6:	439c                	lw	a5,0(a5)
    3cd8:	fdc45703          	lhu	a4,-36(s0)
    3cdc:	85ba                	mv	a1,a4
    3cde:	853e                	mv	a0,a5
    3ce0:	b2bfe0ef          	jal	ra,280a <TIM_SetCompare3>
    3ce4:	a811                	j	3cf8 <setSpeed+0xf2>
    3ce6:	fec42783          	lw	a5,-20(s0)
    3cea:	439c                	lw	a5,0(a5)
    3cec:	fdc45703          	lhu	a4,-36(s0)
    3cf0:	85ba                	mv	a1,a4
    3cf2:	853e                	mv	a0,a5
    3cf4:	b39fe0ef          	jal	ra,282c <TIM_SetCompare4>
    3cf8:	0001                	nop
    3cfa:	fec42783          	lw	a5,-20(s0)
    3cfe:	479c                	lw	a5,8(a5)
    3d00:	4709                	li	a4,2
    3d02:	02e78863          	beq	a5,a4,3d32 <setSpeed+0x12c>
    3d06:	4709                	li	a4,2
    3d08:	00f76663          	bltu	a4,a5,3d14 <setSpeed+0x10e>
    3d0c:	4705                	li	a4,1
    3d0e:	00e78a63          	beq	a5,a4,3d22 <setSpeed+0x11c>
    3d12:	ac05                	j	3f42 <setSpeed+0x33c>
    3d14:	470d                	li	a4,3
    3d16:	02e78663          	beq	a5,a4,3d42 <setSpeed+0x13c>
    3d1a:	4711                	li	a4,4
    3d1c:	02e78b63          	beq	a5,a4,3d52 <setSpeed+0x14c>
    3d20:	a40d                	j	3f42 <setSpeed+0x33c>
    3d22:	fec42783          	lw	a5,-20(s0)
    3d26:	439c                	lw	a5,0(a5)
    3d28:	4581                	li	a1,0
    3d2a:	853e                	mv	a0,a5
    3d2c:	a9bfe0ef          	jal	ra,27c6 <TIM_SetCompare1>
    3d30:	ac09                	j	3f42 <setSpeed+0x33c>
    3d32:	fec42783          	lw	a5,-20(s0)
    3d36:	439c                	lw	a5,0(a5)
    3d38:	4581                	li	a1,0
    3d3a:	853e                	mv	a0,a5
    3d3c:	aadfe0ef          	jal	ra,27e8 <TIM_SetCompare2>
    3d40:	a409                	j	3f42 <setSpeed+0x33c>
    3d42:	fec42783          	lw	a5,-20(s0)
    3d46:	439c                	lw	a5,0(a5)
    3d48:	4581                	li	a1,0
    3d4a:	853e                	mv	a0,a5
    3d4c:	abffe0ef          	jal	ra,280a <TIM_SetCompare3>
    3d50:	aacd                	j	3f42 <setSpeed+0x33c>
    3d52:	fec42783          	lw	a5,-20(s0)
    3d56:	439c                	lw	a5,0(a5)
    3d58:	4581                	li	a1,0
    3d5a:	853e                	mv	a0,a5
    3d5c:	ad1fe0ef          	jal	ra,282c <TIM_SetCompare4>
    3d60:	0001                	nop
    3d62:	a2c5                	j	3f42 <setSpeed+0x33c>
    3d64:	fdc41783          	lh	a5,-36(s0)
    3d68:	1007d363          	bgez	a5,3e6e <setSpeed+0x268>
    3d6c:	fec42783          	lw	a5,-20(s0)
    3d70:	43dc                	lw	a5,4(a5)
    3d72:	4709                	li	a4,2
    3d74:	02e78863          	beq	a5,a4,3da4 <setSpeed+0x19e>
    3d78:	4709                	li	a4,2
    3d7a:	00f76663          	bltu	a4,a5,3d86 <setSpeed+0x180>
    3d7e:	4705                	li	a4,1
    3d80:	00e78a63          	beq	a5,a4,3d94 <setSpeed+0x18e>
    3d84:	a881                	j	3dd4 <setSpeed+0x1ce>
    3d86:	470d                	li	a4,3
    3d88:	02e78663          	beq	a5,a4,3db4 <setSpeed+0x1ae>
    3d8c:	4711                	li	a4,4
    3d8e:	02e78b63          	beq	a5,a4,3dc4 <setSpeed+0x1be>
    3d92:	a089                	j	3dd4 <setSpeed+0x1ce>
    3d94:	fec42783          	lw	a5,-20(s0)
    3d98:	439c                	lw	a5,0(a5)
    3d9a:	4581                	li	a1,0
    3d9c:	853e                	mv	a0,a5
    3d9e:	a29fe0ef          	jal	ra,27c6 <TIM_SetCompare1>
    3da2:	a805                	j	3dd2 <setSpeed+0x1cc>
    3da4:	fec42783          	lw	a5,-20(s0)
    3da8:	439c                	lw	a5,0(a5)
    3daa:	4581                	li	a1,0
    3dac:	853e                	mv	a0,a5
    3dae:	a3bfe0ef          	jal	ra,27e8 <TIM_SetCompare2>
    3db2:	a005                	j	3dd2 <setSpeed+0x1cc>
    3db4:	fec42783          	lw	a5,-20(s0)
    3db8:	439c                	lw	a5,0(a5)
    3dba:	4581                	li	a1,0
    3dbc:	853e                	mv	a0,a5
    3dbe:	a4dfe0ef          	jal	ra,280a <TIM_SetCompare3>
    3dc2:	a801                	j	3dd2 <setSpeed+0x1cc>
    3dc4:	fec42783          	lw	a5,-20(s0)
    3dc8:	439c                	lw	a5,0(a5)
    3dca:	4581                	li	a1,0
    3dcc:	853e                	mv	a0,a5
    3dce:	a5ffe0ef          	jal	ra,282c <TIM_SetCompare4>
    3dd2:	0001                	nop
    3dd4:	fec42783          	lw	a5,-20(s0)
    3dd8:	479c                	lw	a5,8(a5)
    3dda:	4709                	li	a4,2
    3ddc:	02e78e63          	beq	a5,a4,3e18 <setSpeed+0x212>
    3de0:	4709                	li	a4,2
    3de2:	00f76663          	bltu	a4,a5,3dee <setSpeed+0x1e8>
    3de6:	4705                	li	a4,1
    3de8:	00e78a63          	beq	a5,a4,3dfc <setSpeed+0x1f6>
    3dec:	aa99                	j	3f42 <setSpeed+0x33c>
    3dee:	470d                	li	a4,3
    3df0:	04e78263          	beq	a5,a4,3e34 <setSpeed+0x22e>
    3df4:	4711                	li	a4,4
    3df6:	04e78d63          	beq	a5,a4,3e50 <setSpeed+0x24a>
    3dfa:	a2a1                	j	3f42 <setSpeed+0x33c>
    3dfc:	fec42783          	lw	a5,-20(s0)
    3e00:	439c                	lw	a5,0(a5)
    3e02:	fdc45703          	lhu	a4,-36(s0)
    3e06:	40e00733          	neg	a4,a4
    3e0a:	0742                	slli	a4,a4,0x10
    3e0c:	8341                	srli	a4,a4,0x10
    3e0e:	85ba                	mv	a1,a4
    3e10:	853e                	mv	a0,a5
    3e12:	9b5fe0ef          	jal	ra,27c6 <TIM_SetCompare1>
    3e16:	a235                	j	3f42 <setSpeed+0x33c>
    3e18:	fec42783          	lw	a5,-20(s0)
    3e1c:	439c                	lw	a5,0(a5)
    3e1e:	fdc45703          	lhu	a4,-36(s0)
    3e22:	40e00733          	neg	a4,a4
    3e26:	0742                	slli	a4,a4,0x10
    3e28:	8341                	srli	a4,a4,0x10
    3e2a:	85ba                	mv	a1,a4
    3e2c:	853e                	mv	a0,a5
    3e2e:	9bbfe0ef          	jal	ra,27e8 <TIM_SetCompare2>
    3e32:	aa01                	j	3f42 <setSpeed+0x33c>
    3e34:	fec42783          	lw	a5,-20(s0)
    3e38:	439c                	lw	a5,0(a5)
    3e3a:	fdc45703          	lhu	a4,-36(s0)
    3e3e:	40e00733          	neg	a4,a4
    3e42:	0742                	slli	a4,a4,0x10
    3e44:	8341                	srli	a4,a4,0x10
    3e46:	85ba                	mv	a1,a4
    3e48:	853e                	mv	a0,a5
    3e4a:	9c1fe0ef          	jal	ra,280a <TIM_SetCompare3>
    3e4e:	a8d5                	j	3f42 <setSpeed+0x33c>
    3e50:	fec42783          	lw	a5,-20(s0)
    3e54:	439c                	lw	a5,0(a5)
    3e56:	fdc45703          	lhu	a4,-36(s0)
    3e5a:	40e00733          	neg	a4,a4
    3e5e:	0742                	slli	a4,a4,0x10
    3e60:	8341                	srli	a4,a4,0x10
    3e62:	85ba                	mv	a1,a4
    3e64:	853e                	mv	a0,a5
    3e66:	9c7fe0ef          	jal	ra,282c <TIM_SetCompare4>
    3e6a:	0001                	nop
    3e6c:	a8d9                	j	3f42 <setSpeed+0x33c>
    3e6e:	fec42783          	lw	a5,-20(s0)
    3e72:	43dc                	lw	a5,4(a5)
    3e74:	4709                	li	a4,2
    3e76:	02e78863          	beq	a5,a4,3ea6 <setSpeed+0x2a0>
    3e7a:	4709                	li	a4,2
    3e7c:	00f76663          	bltu	a4,a5,3e88 <setSpeed+0x282>
    3e80:	4705                	li	a4,1
    3e82:	00e78a63          	beq	a5,a4,3e96 <setSpeed+0x290>
    3e86:	a881                	j	3ed6 <setSpeed+0x2d0>
    3e88:	470d                	li	a4,3
    3e8a:	02e78663          	beq	a5,a4,3eb6 <setSpeed+0x2b0>
    3e8e:	4711                	li	a4,4
    3e90:	02e78b63          	beq	a5,a4,3ec6 <setSpeed+0x2c0>
    3e94:	a089                	j	3ed6 <setSpeed+0x2d0>
    3e96:	fec42783          	lw	a5,-20(s0)
    3e9a:	439c                	lw	a5,0(a5)
    3e9c:	4581                	li	a1,0
    3e9e:	853e                	mv	a0,a5
    3ea0:	927fe0ef          	jal	ra,27c6 <TIM_SetCompare1>
    3ea4:	a805                	j	3ed4 <setSpeed+0x2ce>
    3ea6:	fec42783          	lw	a5,-20(s0)
    3eaa:	439c                	lw	a5,0(a5)
    3eac:	4581                	li	a1,0
    3eae:	853e                	mv	a0,a5
    3eb0:	939fe0ef          	jal	ra,27e8 <TIM_SetCompare2>
    3eb4:	a005                	j	3ed4 <setSpeed+0x2ce>
    3eb6:	fec42783          	lw	a5,-20(s0)
    3eba:	439c                	lw	a5,0(a5)
    3ebc:	4581                	li	a1,0
    3ebe:	853e                	mv	a0,a5
    3ec0:	94bfe0ef          	jal	ra,280a <TIM_SetCompare3>
    3ec4:	a801                	j	3ed4 <setSpeed+0x2ce>
    3ec6:	fec42783          	lw	a5,-20(s0)
    3eca:	439c                	lw	a5,0(a5)
    3ecc:	4581                	li	a1,0
    3ece:	853e                	mv	a0,a5
    3ed0:	95dfe0ef          	jal	ra,282c <TIM_SetCompare4>
    3ed4:	0001                	nop
    3ed6:	fec42783          	lw	a5,-20(s0)
    3eda:	479c                	lw	a5,8(a5)
    3edc:	4709                	li	a4,2
    3ede:	02e78863          	beq	a5,a4,3f0e <setSpeed+0x308>
    3ee2:	4709                	li	a4,2
    3ee4:	00f76663          	bltu	a4,a5,3ef0 <setSpeed+0x2ea>
    3ee8:	4705                	li	a4,1
    3eea:	00e78a63          	beq	a5,a4,3efe <setSpeed+0x2f8>
    3eee:	a891                	j	3f42 <setSpeed+0x33c>
    3ef0:	470d                	li	a4,3
    3ef2:	02e78663          	beq	a5,a4,3f1e <setSpeed+0x318>
    3ef6:	4711                	li	a4,4
    3ef8:	02e78b63          	beq	a5,a4,3f2e <setSpeed+0x328>
    3efc:	a099                	j	3f42 <setSpeed+0x33c>
    3efe:	fec42783          	lw	a5,-20(s0)
    3f02:	439c                	lw	a5,0(a5)
    3f04:	4581                	li	a1,0
    3f06:	853e                	mv	a0,a5
    3f08:	8bffe0ef          	jal	ra,27c6 <TIM_SetCompare1>
    3f0c:	a81d                	j	3f42 <setSpeed+0x33c>
    3f0e:	fec42783          	lw	a5,-20(s0)
    3f12:	439c                	lw	a5,0(a5)
    3f14:	4581                	li	a1,0
    3f16:	853e                	mv	a0,a5
    3f18:	8d1fe0ef          	jal	ra,27e8 <TIM_SetCompare2>
    3f1c:	a01d                	j	3f42 <setSpeed+0x33c>
    3f1e:	fec42783          	lw	a5,-20(s0)
    3f22:	439c                	lw	a5,0(a5)
    3f24:	4581                	li	a1,0
    3f26:	853e                	mv	a0,a5
    3f28:	8e3fe0ef          	jal	ra,280a <TIM_SetCompare3>
    3f2c:	a819                	j	3f42 <setSpeed+0x33c>
    3f2e:	fec42783          	lw	a5,-20(s0)
    3f32:	439c                	lw	a5,0(a5)
    3f34:	4581                	li	a1,0
    3f36:	853e                	mv	a0,a5
    3f38:	8f5fe0ef          	jal	ra,282c <TIM_SetCompare4>
    3f3c:	0001                	nop
    3f3e:	a011                	j	3f42 <setSpeed+0x33c>
    3f40:	0001                	nop
    3f42:	50b2                	lw	ra,44(sp)
    3f44:	5422                	lw	s0,40(sp)
    3f46:	6145                	addi	sp,sp,48
    3f48:	8082                	ret

00003f4a <Motor_Advanced>:
    3f4a:	1141                	addi	sp,sp,-16
    3f4c:	c606                	sw	ra,12(sp)
    3f4e:	c422                	sw	s0,8(sp)
    3f50:	0800                	addi	s0,sp,16
    3f52:	06400593          	li	a1,100
    3f56:	4505                	li	a0,1
    3f58:	317d                	jal	3c06 <setSpeed>
    3f5a:	f9c00593          	li	a1,-100
    3f5e:	4509                	li	a0,2
    3f60:	315d                	jal	3c06 <setSpeed>
    3f62:	f9c00593          	li	a1,-100
    3f66:	450d                	li	a0,3
    3f68:	3979                	jal	3c06 <setSpeed>
    3f6a:	f9c00593          	li	a1,-100
    3f6e:	4511                	li	a0,4
    3f70:	3959                	jal	3c06 <setSpeed>
    3f72:	0001                	nop
    3f74:	40b2                	lw	ra,12(sp)
    3f76:	4422                	lw	s0,8(sp)
    3f78:	0141                	addi	sp,sp,16
    3f7a:	8082                	ret

00003f7c <Motor_Back>:
    3f7c:	1141                	addi	sp,sp,-16
    3f7e:	c606                	sw	ra,12(sp)
    3f80:	c422                	sw	s0,8(sp)
    3f82:	0800                	addi	s0,sp,16
    3f84:	f9c00593          	li	a1,-100
    3f88:	4505                	li	a0,1
    3f8a:	39b5                	jal	3c06 <setSpeed>
    3f8c:	06400593          	li	a1,100
    3f90:	4509                	li	a0,2
    3f92:	3995                	jal	3c06 <setSpeed>
    3f94:	06400593          	li	a1,100
    3f98:	450d                	li	a0,3
    3f9a:	31b5                	jal	3c06 <setSpeed>
    3f9c:	06400593          	li	a1,100
    3fa0:	4511                	li	a0,4
    3fa2:	3195                	jal	3c06 <setSpeed>
    3fa4:	0001                	nop
    3fa6:	40b2                	lw	ra,12(sp)
    3fa8:	4422                	lw	s0,8(sp)
    3faa:	0141                	addi	sp,sp,16
    3fac:	8082                	ret

00003fae <Motor_Stop>:
    3fae:	1141                	addi	sp,sp,-16
    3fb0:	c606                	sw	ra,12(sp)
    3fb2:	c422                	sw	s0,8(sp)
    3fb4:	0800                	addi	s0,sp,16
    3fb6:	4581                	li	a1,0
    3fb8:	4505                	li	a0,1
    3fba:	31b1                	jal	3c06 <setSpeed>
    3fbc:	4581                	li	a1,0
    3fbe:	4509                	li	a0,2
    3fc0:	3199                	jal	3c06 <setSpeed>
    3fc2:	4581                	li	a1,0
    3fc4:	450d                	li	a0,3
    3fc6:	3181                	jal	3c06 <setSpeed>
    3fc8:	4581                	li	a1,0
    3fca:	4511                	li	a0,4
    3fcc:	392d                	jal	3c06 <setSpeed>
    3fce:	0001                	nop
    3fd0:	40b2                	lw	ra,12(sp)
    3fd2:	4422                	lw	s0,8(sp)
    3fd4:	0141                	addi	sp,sp,16
    3fd6:	8082                	ret

00003fd8 <TIM8_PWMOut_Init>:
    3fd8:	715d                	addi	sp,sp,-80
    3fda:	c686                	sw	ra,76(sp)
    3fdc:	c4a2                	sw	s0,72(sp)
    3fde:	0880                	addi	s0,sp,80
    3fe0:	87aa                	mv	a5,a0
    3fe2:	86ae                	mv	a3,a1
    3fe4:	8732                	mv	a4,a2
    3fe6:	faf41f23          	sh	a5,-66(s0)
    3fea:	87b6                	mv	a5,a3
    3fec:	faf41e23          	sh	a5,-68(s0)
    3ff0:	87ba                	mv	a5,a4
    3ff2:	faf41d23          	sh	a5,-70(s0)
    3ff6:	fe042223          	sw	zero,-28(s0)
    3ffa:	fe042423          	sw	zero,-24(s0)
    3ffe:	fe042623          	sw	zero,-20(s0)
    4002:	fc042a23          	sw	zero,-44(s0)
    4006:	fc042c23          	sw	zero,-40(s0)
    400a:	fc042e23          	sw	zero,-36(s0)
    400e:	fe042023          	sw	zero,-32(s0)
    4012:	fc042423          	sw	zero,-56(s0)
    4016:	fc042623          	sw	zero,-52(s0)
    401a:	fc041823          	sh	zero,-48(s0)
    401e:	4585                	li	a1,1
    4020:	4541                	li	a0,16
    4022:	cddfd0ef          	jal	ra,1cfe <RCC_APB2PeriphClockCmd>
    4026:	4585                	li	a1,1
    4028:	6509                	lui	a0,0x2
    402a:	cd5fd0ef          	jal	ra,1cfe <RCC_APB2PeriphClockCmd>
    402e:	3c000793          	li	a5,960
    4032:	fef41223          	sh	a5,-28(s0)
    4036:	47e1                	li	a5,24
    4038:	fef42623          	sw	a5,-20(s0)
    403c:	478d                	li	a5,3
    403e:	fef42423          	sw	a5,-24(s0)
    4042:	fe440793          	addi	a5,s0,-28
    4046:	85be                	mv	a1,a5
    4048:	40011537          	lui	a0,0x40011
    404c:	b96fd0ef          	jal	ra,13e2 <GPIO_Init>
    4050:	fbe45783          	lhu	a5,-66(s0)
    4054:	fcf41623          	sh	a5,-52(s0)
    4058:	fbc45783          	lhu	a5,-68(s0)
    405c:	fcf41423          	sh	a5,-56(s0)
    4060:	fc041723          	sh	zero,-50(s0)
    4064:	fc041523          	sh	zero,-54(s0)
    4068:	fc840793          	addi	a5,s0,-56
    406c:	85be                	mv	a1,a5
    406e:	400137b7          	lui	a5,0x40013
    4072:	40078513          	addi	a0,a5,1024 # 40013400 <_eusrstack+0x2000b400>
    4076:	d5bfd0ef          	jal	ra,1dd0 <TIM_TimeBaseInit>
    407a:	06000793          	li	a5,96
    407e:	fcf41a23          	sh	a5,-44(s0)
    4082:	4785                	li	a5,1
    4084:	fcf41b23          	sh	a5,-42(s0)
    4088:	fc041c23          	sh	zero,-40(s0)
    408c:	fba45783          	lhu	a5,-70(s0)
    4090:	fcf41d23          	sh	a5,-38(s0)
    4094:	fc041e23          	sh	zero,-36(s0)
    4098:	fc041f23          	sh	zero,-34(s0)
    409c:	fe041023          	sh	zero,-32(s0)
    40a0:	fe041123          	sh	zero,-30(s0)
    40a4:	fd440793          	addi	a5,s0,-44
    40a8:	85be                	mv	a1,a5
    40aa:	400137b7          	lui	a5,0x40013
    40ae:	40078513          	addi	a0,a5,1024 # 40013400 <_eusrstack+0x2000b400>
    40b2:	e87fd0ef          	jal	ra,1f38 <TIM_OC1Init>
    40b6:	fd440793          	addi	a5,s0,-44
    40ba:	85be                	mv	a1,a5
    40bc:	400137b7          	lui	a5,0x40013
    40c0:	40078513          	addi	a0,a5,1024 # 40013400 <_eusrstack+0x2000b400>
    40c4:	feffd0ef          	jal	ra,20b2 <TIM_OC2Init>
    40c8:	fd440793          	addi	a5,s0,-44
    40cc:	85be                	mv	a1,a5
    40ce:	400137b7          	lui	a5,0x40013
    40d2:	40078513          	addi	a0,a5,1024 # 40013400 <_eusrstack+0x2000b400>
    40d6:	99cfe0ef          	jal	ra,2272 <TIM_OC3Init>
    40da:	fd440793          	addi	a5,s0,-44
    40de:	85be                	mv	a1,a5
    40e0:	400137b7          	lui	a5,0x40013
    40e4:	40078513          	addi	a0,a5,1024 # 40013400 <_eusrstack+0x2000b400>
    40e8:	b44fe0ef          	jal	ra,242c <TIM_OC4Init>
    40ec:	45a1                	li	a1,8
    40ee:	400137b7          	lui	a5,0x40013
    40f2:	40078513          	addi	a0,a5,1024 # 40013400 <_eusrstack+0x2000b400>
    40f6:	d94fe0ef          	jal	ra,268a <TIM_OC1PreloadConfig>
    40fa:	45a1                	li	a1,8
    40fc:	400137b7          	lui	a5,0x40013
    4100:	40078513          	addi	a0,a5,1024 # 40013400 <_eusrstack+0x2000b400>
    4104:	dcefe0ef          	jal	ra,26d2 <TIM_OC2PreloadConfig>
    4108:	45a1                	li	a1,8
    410a:	400137b7          	lui	a5,0x40013
    410e:	40078513          	addi	a0,a5,1024 # 40013400 <_eusrstack+0x2000b400>
    4112:	e16fe0ef          	jal	ra,2728 <TIM_OC3PreloadConfig>
    4116:	45a1                	li	a1,8
    4118:	400137b7          	lui	a5,0x40013
    411c:	40078513          	addi	a0,a5,1024 # 40013400 <_eusrstack+0x2000b400>
    4120:	e50fe0ef          	jal	ra,2770 <TIM_OC4PreloadConfig>
    4124:	4585                	li	a1,1
    4126:	400137b7          	lui	a5,0x40013
    412a:	40078513          	addi	a0,a5,1024 # 40013400 <_eusrstack+0x2000b400>
    412e:	caafe0ef          	jal	ra,25d8 <TIM_CtrlPWMOutputs>
    4132:	4585                	li	a1,1
    4134:	400137b7          	lui	a5,0x40013
    4138:	40078513          	addi	a0,a5,1024 # 40013400 <_eusrstack+0x2000b400>
    413c:	cfcfe0ef          	jal	ra,2638 <TIM_ARRPreloadConfig>
    4140:	4585                	li	a1,1
    4142:	400137b7          	lui	a5,0x40013
    4146:	40078513          	addi	a0,a5,1024 # 40013400 <_eusrstack+0x2000b400>
    414a:	c3efe0ef          	jal	ra,2588 <TIM_Cmd>
    414e:	0001                	nop
    4150:	40b6                	lw	ra,76(sp)
    4152:	4426                	lw	s0,72(sp)
    4154:	6161                	addi	sp,sp,80
    4156:	8082                	ret

00004158 <TIM9_PWMOut_Init>:
    4158:	715d                	addi	sp,sp,-80
    415a:	c686                	sw	ra,76(sp)
    415c:	c4a2                	sw	s0,72(sp)
    415e:	0880                	addi	s0,sp,80
    4160:	87aa                	mv	a5,a0
    4162:	86ae                	mv	a3,a1
    4164:	8732                	mv	a4,a2
    4166:	faf41f23          	sh	a5,-66(s0)
    416a:	87b6                	mv	a5,a3
    416c:	faf41e23          	sh	a5,-68(s0)
    4170:	87ba                	mv	a5,a4
    4172:	faf41d23          	sh	a5,-70(s0)
    4176:	fe042223          	sw	zero,-28(s0)
    417a:	fe042423          	sw	zero,-24(s0)
    417e:	fe042623          	sw	zero,-20(s0)
    4182:	fc042a23          	sw	zero,-44(s0)
    4186:	fc042c23          	sw	zero,-40(s0)
    418a:	fc042e23          	sw	zero,-36(s0)
    418e:	fe042023          	sw	zero,-32(s0)
    4192:	fc042423          	sw	zero,-56(s0)
    4196:	fc042623          	sw	zero,-52(s0)
    419a:	fc041823          	sh	zero,-48(s0)
    419e:	4585                	li	a1,1
    41a0:	02000513          	li	a0,32
    41a4:	b5bfd0ef          	jal	ra,1cfe <RCC_APB2PeriphClockCmd>
    41a8:	4585                	li	a1,1
    41aa:	00080537          	lui	a0,0x80
    41ae:	b51fd0ef          	jal	ra,1cfe <RCC_APB2PeriphClockCmd>
    41b2:	4585                	li	a1,1
    41b4:	4505                	li	a0,1
    41b6:	b49fd0ef          	jal	ra,1cfe <RCC_APB2PeriphClockCmd>
    41ba:	6785                	lui	a5,0x1
    41bc:	a0078793          	addi	a5,a5,-1536 # a00 <handle_reset+0xa>
    41c0:	fef41223          	sh	a5,-28(s0)
    41c4:	47e1                	li	a5,24
    41c6:	fef42623          	sw	a5,-20(s0)
    41ca:	478d                	li	a5,3
    41cc:	fef42423          	sw	a5,-24(s0)
    41d0:	fe440793          	addi	a5,s0,-28
    41d4:	85be                	mv	a1,a5
    41d6:	400117b7          	lui	a5,0x40011
    41da:	40078513          	addi	a0,a5,1024 # 40011400 <_eusrstack+0x20009400>
    41de:	a04fd0ef          	jal	ra,13e2 <GPIO_Init>
    41e2:	4585                	li	a1,1
    41e4:	801307b7          	lui	a5,0x80130
    41e8:	01078513          	addi	a0,a5,16 # 80130010 <_eusrstack+0x60128010>
    41ec:	c5cfd0ef          	jal	ra,1648 <GPIO_PinRemapConfig>
    41f0:	fbe45783          	lhu	a5,-66(s0)
    41f4:	fcf41623          	sh	a5,-52(s0)
    41f8:	fbc45783          	lhu	a5,-68(s0)
    41fc:	fcf41423          	sh	a5,-56(s0)
    4200:	fc041723          	sh	zero,-50(s0)
    4204:	fc041523          	sh	zero,-54(s0)
    4208:	fc840793          	addi	a5,s0,-56
    420c:	85be                	mv	a1,a5
    420e:	400157b7          	lui	a5,0x40015
    4212:	c0078513          	addi	a0,a5,-1024 # 40014c00 <_eusrstack+0x2000cc00>
    4216:	bbbfd0ef          	jal	ra,1dd0 <TIM_TimeBaseInit>
    421a:	06000793          	li	a5,96
    421e:	fcf41a23          	sh	a5,-44(s0)
    4222:	4785                	li	a5,1
    4224:	fcf41b23          	sh	a5,-42(s0)
    4228:	fc041c23          	sh	zero,-40(s0)
    422c:	fba45783          	lhu	a5,-70(s0)
    4230:	fcf41d23          	sh	a5,-38(s0)
    4234:	fc041e23          	sh	zero,-36(s0)
    4238:	fc041f23          	sh	zero,-34(s0)
    423c:	fe041023          	sh	zero,-32(s0)
    4240:	fe041123          	sh	zero,-30(s0)
    4244:	fd440793          	addi	a5,s0,-44
    4248:	85be                	mv	a1,a5
    424a:	400157b7          	lui	a5,0x40015
    424e:	c0078513          	addi	a0,a5,-1024 # 40014c00 <_eusrstack+0x2000cc00>
    4252:	ce7fd0ef          	jal	ra,1f38 <TIM_OC1Init>
    4256:	fd440793          	addi	a5,s0,-44
    425a:	85be                	mv	a1,a5
    425c:	400157b7          	lui	a5,0x40015
    4260:	c0078513          	addi	a0,a5,-1024 # 40014c00 <_eusrstack+0x2000cc00>
    4264:	e4ffd0ef          	jal	ra,20b2 <TIM_OC2Init>
    4268:	45a1                	li	a1,8
    426a:	400157b7          	lui	a5,0x40015
    426e:	c0078513          	addi	a0,a5,-1024 # 40014c00 <_eusrstack+0x2000cc00>
    4272:	c18fe0ef          	jal	ra,268a <TIM_OC1PreloadConfig>
    4276:	45a1                	li	a1,8
    4278:	400157b7          	lui	a5,0x40015
    427c:	c0078513          	addi	a0,a5,-1024 # 40014c00 <_eusrstack+0x2000cc00>
    4280:	c52fe0ef          	jal	ra,26d2 <TIM_OC2PreloadConfig>
    4284:	4585                	li	a1,1
    4286:	400157b7          	lui	a5,0x40015
    428a:	c0078513          	addi	a0,a5,-1024 # 40014c00 <_eusrstack+0x2000cc00>
    428e:	b4afe0ef          	jal	ra,25d8 <TIM_CtrlPWMOutputs>
    4292:	4585                	li	a1,1
    4294:	400157b7          	lui	a5,0x40015
    4298:	c0078513          	addi	a0,a5,-1024 # 40014c00 <_eusrstack+0x2000cc00>
    429c:	b9cfe0ef          	jal	ra,2638 <TIM_ARRPreloadConfig>
    42a0:	4585                	li	a1,1
    42a2:	400157b7          	lui	a5,0x40015
    42a6:	c0078513          	addi	a0,a5,-1024 # 40014c00 <_eusrstack+0x2000cc00>
    42aa:	adefe0ef          	jal	ra,2588 <TIM_Cmd>
    42ae:	0001                	nop
    42b0:	40b6                	lw	ra,76(sp)
    42b2:	4426                	lw	s0,72(sp)
    42b4:	6161                	addi	sp,sp,80
    42b6:	8082                	ret

000042b8 <PWMOutputInit>:
    42b8:	1141                	addi	sp,sp,-16
    42ba:	c606                	sw	ra,12(sp)
    42bc:	c422                	sw	s0,8(sp)
    42be:	0800                	addi	s0,sp,16
    42c0:	1f400613          	li	a2,500
    42c4:	05f00593          	li	a1,95
    42c8:	6795                	lui	a5,0x5
    42ca:	e1f78513          	addi	a0,a5,-481 # 4e1f <__adddf3+0x5a1>
    42ce:	3569                	jal	4158 <TIM9_PWMOut_Init>
    42d0:	1f400613          	li	a2,500
    42d4:	05f00593          	li	a1,95
    42d8:	6795                	lui	a5,0x5
    42da:	e1f78513          	addi	a0,a5,-481 # 4e1f <__adddf3+0x5a1>
    42de:	39ed                	jal	3fd8 <TIM8_PWMOut_Init>
    42e0:	0001                	nop
    42e2:	40b2                	lw	ra,12(sp)
    42e4:	4422                	lw	s0,8(sp)
    42e6:	0141                	addi	sp,sp,16
    42e8:	8082                	ret

000042ea <SetServerAngle>:
    42ea:	7179                	addi	sp,sp,-48
    42ec:	d606                	sw	ra,44(sp)
    42ee:	d422                	sw	s0,40(sp)
    42f0:	1800                	addi	s0,sp,48
    42f2:	fca42e23          	sw	a0,-36(s0)
    42f6:	87ae                	mv	a5,a1
    42f8:	fcf41d23          	sh	a5,-38(s0)
    42fc:	fda41703          	lh	a4,-38(s0)
    4300:	fa600793          	li	a5,-90
    4304:	02f74063          	blt	a4,a5,4324 <SetServerAngle+0x3a>
    4308:	fda45783          	lhu	a5,-38(s0)
    430c:	01079693          	slli	a3,a5,0x10
    4310:	86c1                	srai	a3,a3,0x10
    4312:	05a00713          	li	a4,90
    4316:	00d75463          	bge	a4,a3,431e <SetServerAngle+0x34>
    431a:	05a00793          	li	a5,90
    431e:	07c2                	slli	a5,a5,0x10
    4320:	87c1                	srai	a5,a5,0x10
    4322:	a019                	j	4328 <SetServerAngle+0x3e>
    4324:	fa600793          	li	a5,-90
    4328:	fcf41d23          	sh	a5,-38(s0)
    432c:	fda41783          	lh	a5,-38(s0)
    4330:	05a78713          	addi	a4,a5,90
    4334:	7d000793          	li	a5,2000
    4338:	02f707b3          	mul	a5,a4,a5
    433c:	853e                	mv	a0,a5
    433e:	278010ef          	jal	ra,55b6 <__floatsidf>
    4342:	6799                	lui	a5,0x6
    4344:	1907a603          	lw	a2,400(a5) # 6190 <_malloc_usable_size_r+0x88>
    4348:	1947a683          	lw	a3,404(a5)
    434c:	463000ef          	jal	ra,4fae <__divdf3>
    4350:	87aa                	mv	a5,a0
    4352:	882e                	mv	a6,a1
    4354:	853e                	mv	a0,a5
    4356:	85c2                	mv	a1,a6
    4358:	6799                	lui	a5,0x6
    435a:	1987a603          	lw	a2,408(a5) # 6198 <_malloc_usable_size_r+0x90>
    435e:	19c7a683          	lw	a3,412(a5)
    4362:	2b31                	jal	487e <__adddf3>
    4364:	87aa                	mv	a5,a0
    4366:	882e                	mv	a6,a1
    4368:	853e                	mv	a0,a5
    436a:	85c2                	mv	a1,a6
    436c:	1ee010ef          	jal	ra,555a <__fixunsdfsi>
    4370:	87aa                	mv	a5,a0
    4372:	fef41723          	sh	a5,-18(s0)
    4376:	6719                	lui	a4,0x6
    4378:	fdc42783          	lw	a5,-36(s0)
    437c:	20070713          	addi	a4,a4,512 # 6200 <Servers>
    4380:	078e                	slli	a5,a5,0x3
    4382:	97ba                	add	a5,a5,a4
    4384:	43d4                	lw	a3,4(a5)
    4386:	6799                	lui	a5,0x6
    4388:	fdc42703          	lw	a4,-36(s0)
    438c:	070e                	slli	a4,a4,0x3
    438e:	20078793          	addi	a5,a5,512 # 6200 <Servers>
    4392:	97ba                	add	a5,a5,a4
    4394:	439c                	lw	a5,0(a5)
    4396:	fee45703          	lhu	a4,-18(s0)
    439a:	85ba                	mv	a1,a4
    439c:	853e                	mv	a0,a5
    439e:	9682                	jalr	a3
    43a0:	0001                	nop
    43a2:	50b2                	lw	ra,44(sp)
    43a4:	5422                	lw	s0,40(sp)
    43a6:	6145                	addi	sp,sp,48
    43a8:	8082                	ret

000043aa <Servo_Reset>:
    43aa:	1141                	addi	sp,sp,-16
    43ac:	c606                	sw	ra,12(sp)
    43ae:	c422                	sw	s0,8(sp)
    43b0:	0800                	addi	s0,sp,16
    43b2:	4581                	li	a1,0
    43b4:	4501                	li	a0,0
    43b6:	3f15                	jal	42ea <SetServerAngle>
    43b8:	4581                	li	a1,0
    43ba:	4505                	li	a0,1
    43bc:	373d                	jal	42ea <SetServerAngle>
    43be:	4581                	li	a1,0
    43c0:	4509                	li	a0,2
    43c2:	3725                	jal	42ea <SetServerAngle>
    43c4:	4581                	li	a1,0
    43c6:	450d                	li	a0,3
    43c8:	370d                	jal	42ea <SetServerAngle>
    43ca:	4581                	li	a1,0
    43cc:	4511                	li	a0,4
    43ce:	3f31                	jal	42ea <SetServerAngle>
    43d0:	4581                	li	a1,0
    43d2:	4515                	li	a0,5
    43d4:	3f19                	jal	42ea <SetServerAngle>
    43d6:	0001                	nop
    43d8:	40b2                	lw	ra,12(sp)
    43da:	4422                	lw	s0,8(sp)
    43dc:	0141                	addi	sp,sp,16
    43de:	8082                	ret

000043e0 <USART1_Init>:
    43e0:	715d                	addi	sp,sp,-80
    43e2:	c686                	sw	ra,76(sp)
    43e4:	c4a2                	sw	s0,72(sp)
    43e6:	0880                	addi	s0,sp,80
    43e8:	faa42e23          	sw	a0,-68(s0)
    43ec:	fe042223          	sw	zero,-28(s0)
    43f0:	fe042423          	sw	zero,-24(s0)
    43f4:	fe042623          	sw	zero,-20(s0)
    43f8:	fc042a23          	sw	zero,-44(s0)
    43fc:	fc042c23          	sw	zero,-40(s0)
    4400:	fc042e23          	sw	zero,-36(s0)
    4404:	fe042023          	sw	zero,-32(s0)
    4408:	fc042623          	sw	zero,-52(s0)
    440c:	fc042823          	sw	zero,-48(s0)
    4410:	4585                	li	a1,1
    4412:	6791                	lui	a5,0x4
    4414:	00478513          	addi	a0,a5,4 # 4004 <TIM8_PWMOut_Init+0x2c>
    4418:	8e7fd0ef          	jal	ra,1cfe <RCC_APB2PeriphClockCmd>
    441c:	20000793          	li	a5,512
    4420:	fef41223          	sh	a5,-28(s0)
    4424:	478d                	li	a5,3
    4426:	fef42423          	sw	a5,-24(s0)
    442a:	47e1                	li	a5,24
    442c:	fef42623          	sw	a5,-20(s0)
    4430:	fe440793          	addi	a5,s0,-28
    4434:	85be                	mv	a1,a5
    4436:	400117b7          	lui	a5,0x40011
    443a:	80078513          	addi	a0,a5,-2048 # 40010800 <_eusrstack+0x20008800>
    443e:	fa5fc0ef          	jal	ra,13e2 <GPIO_Init>
    4442:	40000793          	li	a5,1024
    4446:	fef41223          	sh	a5,-28(s0)
    444a:	4791                	li	a5,4
    444c:	fef42623          	sw	a5,-20(s0)
    4450:	fe440793          	addi	a5,s0,-28
    4454:	85be                	mv	a1,a5
    4456:	400117b7          	lui	a5,0x40011
    445a:	80078513          	addi	a0,a5,-2048 # 40010800 <_eusrstack+0x20008800>
    445e:	f85fc0ef          	jal	ra,13e2 <GPIO_Init>
    4462:	fbc42783          	lw	a5,-68(s0)
    4466:	fcf42a23          	sw	a5,-44(s0)
    446a:	fc041c23          	sh	zero,-40(s0)
    446e:	fc041d23          	sh	zero,-38(s0)
    4472:	fc041e23          	sh	zero,-36(s0)
    4476:	fe041023          	sh	zero,-32(s0)
    447a:	47b1                	li	a5,12
    447c:	fcf41f23          	sh	a5,-34(s0)
    4480:	fd440793          	addi	a5,s0,-44
    4484:	85be                	mv	a1,a5
    4486:	400147b7          	lui	a5,0x40014
    448a:	80078513          	addi	a0,a5,-2048 # 40013800 <_eusrstack+0x2000b800>
    448e:	bc2fe0ef          	jal	ra,2850 <USART_Init>
    4492:	4605                	li	a2,1
    4494:	52500593          	li	a1,1317
    4498:	400147b7          	lui	a5,0x40014
    449c:	80078513          	addi	a0,a5,-2048 # 40013800 <_eusrstack+0x2000b800>
    44a0:	dbcfe0ef          	jal	ra,2a5c <USART_ITConfig>
    44a4:	03500793          	li	a5,53
    44a8:	fcf40623          	sb	a5,-52(s0)
    44ac:	4785                	li	a5,1
    44ae:	fcf406a3          	sb	a5,-51(s0)
    44b2:	4785                	li	a5,1
    44b4:	fcf40723          	sb	a5,-50(s0)
    44b8:	4785                	li	a5,1
    44ba:	fcf42823          	sw	a5,-48(s0)
    44be:	fcc40793          	addi	a5,s0,-52
    44c2:	853e                	mv	a0,a5
    44c4:	b54fd0ef          	jal	ra,1818 <NVIC_Init>
    44c8:	4585                	li	a1,1
    44ca:	400147b7          	lui	a5,0x40014
    44ce:	80078513          	addi	a0,a5,-2048 # 40013800 <_eusrstack+0x2000b800>
    44d2:	d32fe0ef          	jal	ra,2a04 <USART_Cmd>
    44d6:	0001                	nop
    44d8:	40b6                	lw	ra,76(sp)
    44da:	4426                	lw	s0,72(sp)
    44dc:	6161                	addi	sp,sp,80
    44de:	8082                	ret

000044e0 <UART4_Init>:
    44e0:	715d                	addi	sp,sp,-80
    44e2:	c686                	sw	ra,76(sp)
    44e4:	c4a2                	sw	s0,72(sp)
    44e6:	0880                	addi	s0,sp,80
    44e8:	faa42e23          	sw	a0,-68(s0)
    44ec:	fe042223          	sw	zero,-28(s0)
    44f0:	fe042423          	sw	zero,-24(s0)
    44f4:	fe042623          	sw	zero,-20(s0)
    44f8:	fc042a23          	sw	zero,-44(s0)
    44fc:	fc042c23          	sw	zero,-40(s0)
    4500:	fc042e23          	sw	zero,-36(s0)
    4504:	fe042023          	sw	zero,-32(s0)
    4508:	fc042623          	sw	zero,-52(s0)
    450c:	fc042823          	sw	zero,-48(s0)
    4510:	4585                	li	a1,1
    4512:	00080537          	lui	a0,0x80
    4516:	82ffd0ef          	jal	ra,1d44 <RCC_APB1PeriphClockCmd>
    451a:	4585                	li	a1,1
    451c:	04000513          	li	a0,64
    4520:	fdefd0ef          	jal	ra,1cfe <RCC_APB2PeriphClockCmd>
    4524:	4585                	li	a1,1
    4526:	4505                	li	a0,1
    4528:	fd6fd0ef          	jal	ra,1cfe <RCC_APB2PeriphClockCmd>
    452c:	4585                	li	a1,1
    452e:	803007b7          	lui	a5,0x80300
    4532:	00278513          	addi	a0,a5,2 # 80300002 <_eusrstack+0x602f8002>
    4536:	912fd0ef          	jal	ra,1648 <GPIO_PinRemapConfig>
    453a:	4785                	li	a5,1
    453c:	fef41223          	sh	a5,-28(s0)
    4540:	478d                	li	a5,3
    4542:	fef42423          	sw	a5,-24(s0)
    4546:	47e1                	li	a5,24
    4548:	fef42623          	sw	a5,-20(s0)
    454c:	fe440793          	addi	a5,s0,-28
    4550:	85be                	mv	a1,a5
    4552:	400127b7          	lui	a5,0x40012
    4556:	80078513          	addi	a0,a5,-2048 # 40011800 <_eusrstack+0x20009800>
    455a:	e89fc0ef          	jal	ra,13e2 <GPIO_Init>
    455e:	4789                	li	a5,2
    4560:	fef41223          	sh	a5,-28(s0)
    4564:	4791                	li	a5,4
    4566:	fef42623          	sw	a5,-20(s0)
    456a:	fe440793          	addi	a5,s0,-28
    456e:	85be                	mv	a1,a5
    4570:	400127b7          	lui	a5,0x40012
    4574:	80078513          	addi	a0,a5,-2048 # 40011800 <_eusrstack+0x20009800>
    4578:	e6bfc0ef          	jal	ra,13e2 <GPIO_Init>
    457c:	fbc42783          	lw	a5,-68(s0)
    4580:	fcf42a23          	sw	a5,-44(s0)
    4584:	fc041c23          	sh	zero,-40(s0)
    4588:	fc041d23          	sh	zero,-38(s0)
    458c:	fc041e23          	sh	zero,-36(s0)
    4590:	fe041023          	sh	zero,-32(s0)
    4594:	47b1                	li	a5,12
    4596:	fcf41f23          	sh	a5,-34(s0)
    459a:	fd440793          	addi	a5,s0,-44
    459e:	85be                	mv	a1,a5
    45a0:	400057b7          	lui	a5,0x40005
    45a4:	c0078513          	addi	a0,a5,-1024 # 40004c00 <_eusrstack+0x1fffcc00>
    45a8:	aa8fe0ef          	jal	ra,2850 <USART_Init>
    45ac:	4605                	li	a2,1
    45ae:	52500593          	li	a1,1317
    45b2:	400057b7          	lui	a5,0x40005
    45b6:	c0078513          	addi	a0,a5,-1024 # 40004c00 <_eusrstack+0x1fffcc00>
    45ba:	ca2fe0ef          	jal	ra,2a5c <USART_ITConfig>
    45be:	04400793          	li	a5,68
    45c2:	fcf40623          	sb	a5,-52(s0)
    45c6:	4785                	li	a5,1
    45c8:	fcf406a3          	sb	a5,-51(s0)
    45cc:	4789                	li	a5,2
    45ce:	fcf40723          	sb	a5,-50(s0)
    45d2:	4785                	li	a5,1
    45d4:	fcf42823          	sw	a5,-48(s0)
    45d8:	fcc40793          	addi	a5,s0,-52
    45dc:	853e                	mv	a0,a5
    45de:	a3afd0ef          	jal	ra,1818 <NVIC_Init>
    45e2:	4585                	li	a1,1
    45e4:	400057b7          	lui	a5,0x40005
    45e8:	c0078513          	addi	a0,a5,-1024 # 40004c00 <_eusrstack+0x1fffcc00>
    45ec:	c18fe0ef          	jal	ra,2a04 <USART_Cmd>
    45f0:	0001                	nop
    45f2:	40b6                	lw	ra,76(sp)
    45f4:	4426                	lw	s0,72(sp)
    45f6:	6161                	addi	sp,sp,80
    45f8:	8082                	ret

000045fa <USART1_SendByte>:
    45fa:	1101                	addi	sp,sp,-32
    45fc:	ce06                	sw	ra,28(sp)
    45fe:	cc22                	sw	s0,24(sp)
    4600:	1000                	addi	s0,sp,32
    4602:	87aa                	mv	a5,a0
    4604:	fef407a3          	sb	a5,-17(s0)
    4608:	fef44783          	lbu	a5,-17(s0)
    460c:	07c2                	slli	a5,a5,0x10
    460e:	83c1                	srli	a5,a5,0x10
    4610:	85be                	mv	a1,a5
    4612:	400147b7          	lui	a5,0x40014
    4616:	80078513          	addi	a0,a5,-2048 # 40013800 <_eusrstack+0x2000b800>
    461a:	d06fe0ef          	jal	ra,2b20 <USART_SendData>
    461e:	0001                	nop
    4620:	08000593          	li	a1,128
    4624:	400147b7          	lui	a5,0x40014
    4628:	80078513          	addi	a0,a5,-2048 # 40013800 <_eusrstack+0x2000b800>
    462c:	d44fe0ef          	jal	ra,2b70 <USART_GetFlagStatus>
    4630:	87aa                	mv	a5,a0
    4632:	d7fd                	beqz	a5,4620 <USART1_SendByte+0x26>
    4634:	0001                	nop
    4636:	40f2                	lw	ra,28(sp)
    4638:	4462                	lw	s0,24(sp)
    463a:	6105                	addi	sp,sp,32
    463c:	8082                	ret

0000463e <USART1_SendString_Len>:
    463e:	7179                	addi	sp,sp,-48
    4640:	d606                	sw	ra,44(sp)
    4642:	d422                	sw	s0,40(sp)
    4644:	1800                	addi	s0,sp,48
    4646:	fca42e23          	sw	a0,-36(s0)
    464a:	87ae                	mv	a5,a1
    464c:	fcf41d23          	sh	a5,-38(s0)
    4650:	fda45783          	lhu	a5,-38(s0)
    4654:	fef42623          	sw	a5,-20(s0)
    4658:	a829                	j	4672 <USART1_SendString_Len+0x34>
    465a:	fdc42783          	lw	a5,-36(s0)
    465e:	00178713          	addi	a4,a5,1
    4662:	fce42e23          	sw	a4,-36(s0)
    4666:	00078783          	lb	a5,0(a5)
    466a:	0ff7f793          	andi	a5,a5,255
    466e:	853e                	mv	a0,a5
    4670:	3769                	jal	45fa <USART1_SendByte>
    4672:	fec42783          	lw	a5,-20(s0)
    4676:	fff78713          	addi	a4,a5,-1
    467a:	fee42623          	sw	a4,-20(s0)
    467e:	fff1                	bnez	a5,465a <USART1_SendString_Len+0x1c>
    4680:	0001                	nop
    4682:	50b2                	lw	ra,44(sp)
    4684:	5422                	lw	s0,40(sp)
    4686:	6145                	addi	sp,sp,48
    4688:	8082                	ret

0000468a <UART4_SendByte>:
    468a:	1101                	addi	sp,sp,-32
    468c:	ce06                	sw	ra,28(sp)
    468e:	cc22                	sw	s0,24(sp)
    4690:	1000                	addi	s0,sp,32
    4692:	87aa                	mv	a5,a0
    4694:	fef407a3          	sb	a5,-17(s0)
    4698:	fef44783          	lbu	a5,-17(s0)
    469c:	07c2                	slli	a5,a5,0x10
    469e:	83c1                	srli	a5,a5,0x10
    46a0:	85be                	mv	a1,a5
    46a2:	400057b7          	lui	a5,0x40005
    46a6:	c0078513          	addi	a0,a5,-1024 # 40004c00 <_eusrstack+0x1fffcc00>
    46aa:	c76fe0ef          	jal	ra,2b20 <USART_SendData>
    46ae:	0001                	nop
    46b0:	08000593          	li	a1,128
    46b4:	400057b7          	lui	a5,0x40005
    46b8:	c0078513          	addi	a0,a5,-1024 # 40004c00 <_eusrstack+0x1fffcc00>
    46bc:	cb4fe0ef          	jal	ra,2b70 <USART_GetFlagStatus>
    46c0:	87aa                	mv	a5,a0
    46c2:	d7fd                	beqz	a5,46b0 <UART4_SendByte+0x26>
    46c4:	0001                	nop
    46c6:	40f2                	lw	ra,28(sp)
    46c8:	4462                	lw	s0,24(sp)
    46ca:	6105                	addi	sp,sp,32
    46cc:	8082                	ret

000046ce <USART1_Printf>:
    46ce:	714d                	addi	sp,sp,-336
    46d0:	12112623          	sw	ra,300(sp)
    46d4:	12812423          	sw	s0,296(sp)
    46d8:	1a00                	addi	s0,sp,304
    46da:	eca42e23          	sw	a0,-292(s0)
    46de:	c04c                	sw	a1,4(s0)
    46e0:	c410                	sw	a2,8(s0)
    46e2:	c454                	sw	a3,12(s0)
    46e4:	c818                	sw	a4,16(s0)
    46e6:	c85c                	sw	a5,20(s0)
    46e8:	01042c23          	sw	a6,24(s0)
    46ec:	01142e23          	sw	a7,28(s0)
    46f0:	02040793          	addi	a5,s0,32
    46f4:	1791                	addi	a5,a5,-28
    46f6:	fef42223          	sw	a5,-28(s0)
    46fa:	fe442703          	lw	a4,-28(s0)
    46fe:	ee440793          	addi	a5,s0,-284
    4702:	86ba                	mv	a3,a4
    4704:	edc42603          	lw	a2,-292(s0)
    4708:	10000593          	li	a1,256
    470c:	853e                	mv	a0,a5
    470e:	242010ef          	jal	ra,5950 <vsniprintf>
    4712:	fea42423          	sw	a0,-24(s0)
    4716:	fe042623          	sw	zero,-20(s0)
    471a:	a00d                	j	473c <USART1_Printf+0x6e>
    471c:	fec42783          	lw	a5,-20(s0)
    4720:	ff040713          	addi	a4,s0,-16
    4724:	97ba                	add	a5,a5,a4
    4726:	ef478783          	lb	a5,-268(a5)
    472a:	0ff7f793          	andi	a5,a5,255
    472e:	853e                	mv	a0,a5
    4730:	35e9                	jal	45fa <USART1_SendByte>
    4732:	fec42783          	lw	a5,-20(s0)
    4736:	0785                	addi	a5,a5,1
    4738:	fef42623          	sw	a5,-20(s0)
    473c:	fec42703          	lw	a4,-20(s0)
    4740:	fe842783          	lw	a5,-24(s0)
    4744:	fcf74ce3          	blt	a4,a5,471c <USART1_Printf+0x4e>
    4748:	0001                	nop
    474a:	12c12083          	lw	ra,300(sp)
    474e:	12812403          	lw	s0,296(sp)
    4752:	6171                	addi	sp,sp,336
    4754:	8082                	ret

00004756 <UART4_Printf>:
    4756:	714d                	addi	sp,sp,-336
    4758:	12112623          	sw	ra,300(sp)
    475c:	12812423          	sw	s0,296(sp)
    4760:	1a00                	addi	s0,sp,304
    4762:	eca42e23          	sw	a0,-292(s0)
    4766:	c04c                	sw	a1,4(s0)
    4768:	c410                	sw	a2,8(s0)
    476a:	c454                	sw	a3,12(s0)
    476c:	c818                	sw	a4,16(s0)
    476e:	c85c                	sw	a5,20(s0)
    4770:	01042c23          	sw	a6,24(s0)
    4774:	01142e23          	sw	a7,28(s0)
    4778:	02040793          	addi	a5,s0,32
    477c:	1791                	addi	a5,a5,-28
    477e:	fef42223          	sw	a5,-28(s0)
    4782:	fe442703          	lw	a4,-28(s0)
    4786:	ee440793          	addi	a5,s0,-284
    478a:	86ba                	mv	a3,a4
    478c:	edc42603          	lw	a2,-292(s0)
    4790:	10000593          	li	a1,256
    4794:	853e                	mv	a0,a5
    4796:	1ba010ef          	jal	ra,5950 <vsniprintf>
    479a:	fea42423          	sw	a0,-24(s0)
    479e:	fe042623          	sw	zero,-20(s0)
    47a2:	a00d                	j	47c4 <UART4_Printf+0x6e>
    47a4:	fec42783          	lw	a5,-20(s0)
    47a8:	ff040713          	addi	a4,s0,-16
    47ac:	97ba                	add	a5,a5,a4
    47ae:	ef478783          	lb	a5,-268(a5)
    47b2:	0ff7f793          	andi	a5,a5,255
    47b6:	853e                	mv	a0,a5
    47b8:	3dc9                	jal	468a <UART4_SendByte>
    47ba:	fec42783          	lw	a5,-20(s0)
    47be:	0785                	addi	a5,a5,1
    47c0:	fef42623          	sw	a5,-20(s0)
    47c4:	fec42703          	lw	a4,-20(s0)
    47c8:	fe842783          	lw	a5,-24(s0)
    47cc:	fcf74ce3          	blt	a4,a5,47a4 <UART4_Printf+0x4e>
    47d0:	0001                	nop
    47d2:	12c12083          	lw	ra,300(sp)
    47d6:	12812403          	lw	s0,296(sp)
    47da:	6171                	addi	sp,sp,336
    47dc:	8082                	ret

000047de <Delay_Init>:
    47de:	1141                	addi	sp,sp,-16
    47e0:	c622                	sw	s0,12(sp)
    47e2:	0800                	addi	s0,sp,16
    47e4:	200007b7          	lui	a5,0x20000
    47e8:	1a07a703          	lw	a4,416(a5) # 200001a0 <SystemCoreClock>
    47ec:	007a17b7          	lui	a5,0x7a1
    47f0:	20078793          	addi	a5,a5,512 # 7a1200 <_data_lma+0x79ae54>
    47f4:	02f757b3          	divu	a5,a4,a5
    47f8:	0ff7f713          	andi	a4,a5,255
    47fc:	82e18023          	sb	a4,-2016(gp) # 200001c0 <p_us>
    4800:	8201c783          	lbu	a5,-2016(gp) # 200001c0 <p_us>
    4804:	01079713          	slli	a4,a5,0x10
    4808:	8341                	srli	a4,a4,0x10
    480a:	3e800793          	li	a5,1000
    480e:	02f707b3          	mul	a5,a4,a5
    4812:	01079713          	slli	a4,a5,0x10
    4816:	8341                	srli	a4,a4,0x10
    4818:	82e19123          	sh	a4,-2014(gp) # 200001c2 <p_ms>
    481c:	0001                	nop
    481e:	4432                	lw	s0,12(sp)
    4820:	0141                	addi	sp,sp,16
    4822:	8082                	ret

00004824 <_sbrk>:
    4824:	1101                	addi	sp,sp,-32
    4826:	ce22                	sw	s0,28(sp)
    4828:	1000                	addi	s0,sp,32
    482a:	fea42623          	sw	a0,-20(s0)
    482e:	8081a703          	lw	a4,-2040(gp) # 200001a8 <curbrk.5349>
    4832:	fec42783          	lw	a5,-20(s0)
    4836:	973e                	add	a4,a4,a5
    4838:	83018793          	addi	a5,gp,-2000 # 200001d0 <_ebss>
    483c:	00f76d63          	bltu	a4,a5,4856 <_sbrk+0x32>
    4840:	8081a703          	lw	a4,-2040(gp) # 200001a8 <curbrk.5349>
    4844:	fec42783          	lw	a5,-20(s0)
    4848:	973e                	add	a4,a4,a5
    484a:	200087b7          	lui	a5,0x20008
    484e:	80078793          	addi	a5,a5,-2048 # 20007800 <_heap_end>
    4852:	00e7f463          	bgeu	a5,a4,485a <_sbrk+0x36>
    4856:	57fd                	li	a5,-1
    4858:	a839                	j	4876 <_sbrk+0x52>
    485a:	8081a703          	lw	a4,-2040(gp) # 200001a8 <curbrk.5349>
    485e:	fec42783          	lw	a5,-20(s0)
    4862:	973e                	add	a4,a4,a5
    4864:	80e1a423          	sw	a4,-2040(gp) # 200001a8 <curbrk.5349>
    4868:	8081a703          	lw	a4,-2040(gp) # 200001a8 <curbrk.5349>
    486c:	fec42783          	lw	a5,-20(s0)
    4870:	40f007b3          	neg	a5,a5
    4874:	97ba                	add	a5,a5,a4
    4876:	853e                	mv	a0,a5
    4878:	4472                	lw	s0,28(sp)
    487a:	6105                	addi	sp,sp,32
    487c:	8082                	ret

0000487e <__adddf3>:
    487e:	00100837          	lui	a6,0x100
    4882:	1101                	addi	sp,sp,-32
    4884:	187d                	addi	a6,a6,-1
    4886:	00b87733          	and	a4,a6,a1
    488a:	ca26                	sw	s1,20(sp)
    488c:	00d87833          	and	a6,a6,a3
    4890:	0145d493          	srli	s1,a1,0x14
    4894:	0146d313          	srli	t1,a3,0x14
    4898:	00371e13          	slli	t3,a4,0x3
    489c:	c64e                	sw	s3,12(sp)
    489e:	01d55713          	srli	a4,a0,0x1d
    48a2:	080e                	slli	a6,a6,0x3
    48a4:	01d65793          	srli	a5,a2,0x1d
    48a8:	7ff4f493          	andi	s1,s1,2047
    48ac:	7ff37313          	andi	t1,t1,2047
    48b0:	ce06                	sw	ra,28(sp)
    48b2:	cc22                	sw	s0,24(sp)
    48b4:	c84a                	sw	s2,16(sp)
    48b6:	01f5d993          	srli	s3,a1,0x1f
    48ba:	01f6de93          	srli	t4,a3,0x1f
    48be:	01c76733          	or	a4,a4,t3
    48c2:	00351f13          	slli	t5,a0,0x3
    48c6:	0107e833          	or	a6,a5,a6
    48ca:	00361f93          	slli	t6,a2,0x3
    48ce:	40648e33          	sub	t3,s1,t1
    48d2:	19d98063          	beq	s3,t4,4a52 <__adddf3+0x1d4>
    48d6:	13c05663          	blez	t3,4a02 <__adddf3+0x184>
    48da:	1c030463          	beqz	t1,4aa2 <__adddf3+0x224>
    48de:	008006b7          	lui	a3,0x800
    48e2:	7ff00793          	li	a5,2047
    48e6:	00d86833          	or	a6,a6,a3
    48ea:	36f48f63          	beq	s1,a5,4c68 <__adddf3+0x3ea>
    48ee:	03800793          	li	a5,56
    48f2:	35c7c063          	blt	a5,t3,4c32 <__adddf3+0x3b4>
    48f6:	47fd                	li	a5,31
    48f8:	47c7cd63          	blt	a5,t3,4d72 <__adddf3+0x4f4>
    48fc:	02000513          	li	a0,32
    4900:	41c50533          	sub	a0,a0,t3
    4904:	01cfd7b3          	srl	a5,t6,t3
    4908:	00a816b3          	sll	a3,a6,a0
    490c:	00af9933          	sll	s2,t6,a0
    4910:	8edd                	or	a3,a3,a5
    4912:	01203933          	snez	s2,s2
    4916:	01c857b3          	srl	a5,a6,t3
    491a:	0126e933          	or	s2,a3,s2
    491e:	8f1d                	sub	a4,a4,a5
    4920:	412f0933          	sub	s2,t5,s2
    4924:	012f37b3          	sltu	a5,t5,s2
    4928:	40f70633          	sub	a2,a4,a5
    492c:	00861793          	slli	a5,a2,0x8
    4930:	2407d463          	bgez	a5,4b78 <__adddf3+0x2fa>
    4934:	00800737          	lui	a4,0x800
    4938:	177d                	addi	a4,a4,-1
    493a:	00e67433          	and	s0,a2,a4
    493e:	2c040c63          	beqz	s0,4c16 <__adddf3+0x398>
    4942:	8522                	mv	a0,s0
    4944:	4e3000ef          	jal	ra,5626 <__clzsi2>
    4948:	ff850713          	addi	a4,a0,-8 # 7fff8 <_data_lma+0x79c4c>
    494c:	02000793          	li	a5,32
    4950:	8f99                	sub	a5,a5,a4
    4952:	00f957b3          	srl	a5,s2,a5
    4956:	00e41633          	sll	a2,s0,a4
    495a:	8fd1                	or	a5,a5,a2
    495c:	00e91933          	sll	s2,s2,a4
    4960:	2a974163          	blt	a4,s1,4c02 <__adddf3+0x384>
    4964:	40970533          	sub	a0,a4,s1
    4968:	00150613          	addi	a2,a0,1
    496c:	477d                	li	a4,31
    496e:	38c74d63          	blt	a4,a2,4d08 <__adddf3+0x48a>
    4972:	02000713          	li	a4,32
    4976:	8f11                	sub	a4,a4,a2
    4978:	00c956b3          	srl	a3,s2,a2
    497c:	00e91933          	sll	s2,s2,a4
    4980:	00e79733          	sll	a4,a5,a4
    4984:	8f55                	or	a4,a4,a3
    4986:	01203933          	snez	s2,s2
    498a:	01276933          	or	s2,a4,s2
    498e:	00c7d633          	srl	a2,a5,a2
    4992:	4481                	li	s1,0
    4994:	00797793          	andi	a5,s2,7
    4998:	cf81                	beqz	a5,49b0 <__adddf3+0x132>
    499a:	00f97713          	andi	a4,s2,15
    499e:	4791                	li	a5,4
    49a0:	00f70863          	beq	a4,a5,49b0 <__adddf3+0x132>
    49a4:	00490713          	addi	a4,s2,4
    49a8:	01273933          	sltu	s2,a4,s2
    49ac:	964a                	add	a2,a2,s2
    49ae:	893a                	mv	s2,a4
    49b0:	00861793          	slli	a5,a2,0x8
    49b4:	1c07d663          	bgez	a5,4b80 <__adddf3+0x302>
    49b8:	00148513          	addi	a0,s1,1
    49bc:	7ff00793          	li	a5,2047
    49c0:	85ce                	mv	a1,s3
    49c2:	20f50463          	beq	a0,a5,4bca <__adddf3+0x34c>
    49c6:	ff8007b7          	lui	a5,0xff800
    49ca:	17fd                	addi	a5,a5,-1
    49cc:	8ff1                	and	a5,a5,a2
    49ce:	01d79893          	slli	a7,a5,0x1d
    49d2:	00395913          	srli	s2,s2,0x3
    49d6:	07a6                	slli	a5,a5,0x9
    49d8:	0128e8b3          	or	a7,a7,s2
    49dc:	83b1                	srli	a5,a5,0xc
    49de:	7ff57513          	andi	a0,a0,2047
    49e2:	00c79693          	slli	a3,a5,0xc
    49e6:	0552                	slli	a0,a0,0x14
    49e8:	40f2                	lw	ra,28(sp)
    49ea:	4462                	lw	s0,24(sp)
    49ec:	82b1                	srli	a3,a3,0xc
    49ee:	05fe                	slli	a1,a1,0x1f
    49f0:	8ec9                	or	a3,a3,a0
    49f2:	8ecd                	or	a3,a3,a1
    49f4:	44d2                	lw	s1,20(sp)
    49f6:	4942                	lw	s2,16(sp)
    49f8:	49b2                	lw	s3,12(sp)
    49fa:	8546                	mv	a0,a7
    49fc:	85b6                	mv	a1,a3
    49fe:	6105                	addi	sp,sp,32
    4a00:	8082                	ret
    4a02:	0a0e1e63          	bnez	t3,4abe <__adddf3+0x240>
    4a06:	00148313          	addi	t1,s1,1
    4a0a:	7fe37313          	andi	t1,t1,2046
    4a0e:	22031763          	bnez	t1,4c3c <__adddf3+0x3be>
    4a12:	01e767b3          	or	a5,a4,t5
    4a16:	01f868b3          	or	a7,a6,t6
    4a1a:	1a049d63          	bnez	s1,4bd4 <__adddf3+0x356>
    4a1e:	40078763          	beqz	a5,4e2c <__adddf3+0x5ae>
    4a22:	44088663          	beqz	a7,4e6e <__adddf3+0x5f0>
    4a26:	41ff0933          	sub	s2,t5,t6
    4a2a:	410707b3          	sub	a5,a4,a6
    4a2e:	012f3633          	sltu	a2,t5,s2
    4a32:	40c78633          	sub	a2,a5,a2
    4a36:	00861793          	slli	a5,a2,0x8
    4a3a:	4c07d663          	bgez	a5,4f06 <__adddf3+0x688>
    4a3e:	41ef8933          	sub	s2,t6,t5
    4a42:	40e807b3          	sub	a5,a6,a4
    4a46:	012fb633          	sltu	a2,t6,s2
    4a4a:	40c78633          	sub	a2,a5,a2
    4a4e:	89f6                	mv	s3,t4
    4a50:	b791                	j	4994 <__adddf3+0x116>
    4a52:	0fc05063          	blez	t3,4b32 <__adddf3+0x2b4>
    4a56:	0c030063          	beqz	t1,4b16 <__adddf3+0x298>
    4a5a:	008006b7          	lui	a3,0x800
    4a5e:	7ff00793          	li	a5,2047
    4a62:	00d86833          	or	a6,a6,a3
    4a66:	3af48a63          	beq	s1,a5,4e1a <__adddf3+0x59c>
    4a6a:	03800793          	li	a5,56
    4a6e:	13c7cb63          	blt	a5,t3,4ba4 <__adddf3+0x326>
    4a72:	47fd                	li	a5,31
    4a74:	35c7df63          	bge	a5,t3,4dd2 <__adddf3+0x554>
    4a78:	fe0e0913          	addi	s2,t3,-32
    4a7c:	02000793          	li	a5,32
    4a80:	012856b3          	srl	a3,a6,s2
    4a84:	00fe0a63          	beq	t3,a5,4a98 <__adddf3+0x21a>
    4a88:	04000913          	li	s2,64
    4a8c:	41c90933          	sub	s2,s2,t3
    4a90:	01281933          	sll	s2,a6,s2
    4a94:	012fefb3          	or	t6,t6,s2
    4a98:	01f03933          	snez	s2,t6
    4a9c:	00d96933          	or	s2,s2,a3
    4aa0:	a231                	j	4bac <__adddf3+0x32e>
    4aa2:	01f867b3          	or	a5,a6,t6
    4aa6:	1c078a63          	beqz	a5,4c7a <__adddf3+0x3fc>
    4aaa:	fffe0793          	addi	a5,t3,-1
    4aae:	38078c63          	beqz	a5,4e46 <__adddf3+0x5c8>
    4ab2:	7ff00693          	li	a3,2047
    4ab6:	1ade0963          	beq	t3,a3,4c68 <__adddf3+0x3ea>
    4aba:	8e3e                	mv	t3,a5
    4abc:	bd0d                	j	48ee <__adddf3+0x70>
    4abe:	409305b3          	sub	a1,t1,s1
    4ac2:	22049163          	bnez	s1,4ce4 <__adddf3+0x466>
    4ac6:	01e767b3          	or	a5,a4,t5
    4aca:	32078763          	beqz	a5,4df8 <__adddf3+0x57a>
    4ace:	fff58793          	addi	a5,a1,-1 # fff <DMA_DeInit+0x17>
    4ad2:	44078163          	beqz	a5,4f14 <__adddf3+0x696>
    4ad6:	7ff00693          	li	a3,2047
    4ada:	20d58c63          	beq	a1,a3,4cf2 <__adddf3+0x474>
    4ade:	85be                	mv	a1,a5
    4ae0:	03800793          	li	a5,56
    4ae4:	2ab7cc63          	blt	a5,a1,4d9c <__adddf3+0x51e>
    4ae8:	47fd                	li	a5,31
    4aea:	3cb7cf63          	blt	a5,a1,4ec8 <__adddf3+0x64a>
    4aee:	02000793          	li	a5,32
    4af2:	8f8d                	sub	a5,a5,a1
    4af4:	00f71933          	sll	s2,a4,a5
    4af8:	00bf56b3          	srl	a3,t5,a1
    4afc:	00ff17b3          	sll	a5,t5,a5
    4b00:	00d96933          	or	s2,s2,a3
    4b04:	00f037b3          	snez	a5,a5
    4b08:	00b75733          	srl	a4,a4,a1
    4b0c:	00f96933          	or	s2,s2,a5
    4b10:	40e80833          	sub	a6,a6,a4
    4b14:	ac41                	j	4da4 <__adddf3+0x526>
    4b16:	01f867b3          	or	a5,a6,t6
    4b1a:	34078063          	beqz	a5,4e5a <__adddf3+0x5dc>
    4b1e:	fffe0793          	addi	a5,t3,-1
    4b22:	20078a63          	beqz	a5,4d36 <__adddf3+0x4b8>
    4b26:	7ff00693          	li	a3,2047
    4b2a:	2ede0863          	beq	t3,a3,4e1a <__adddf3+0x59c>
    4b2e:	8e3e                	mv	t3,a5
    4b30:	bf2d                	j	4a6a <__adddf3+0x1ec>
    4b32:	140e1e63          	bnez	t3,4c8e <__adddf3+0x410>
    4b36:	00148693          	addi	a3,s1,1
    4b3a:	7fe6f793          	andi	a5,a3,2046
    4b3e:	34079163          	bnez	a5,4e80 <__adddf3+0x602>
    4b42:	01e767b3          	or	a5,a4,t5
    4b46:	2c049563          	bnez	s1,4e10 <__adddf3+0x592>
    4b4a:	3e078063          	beqz	a5,4f2a <__adddf3+0x6ac>
    4b4e:	01f867b3          	or	a5,a6,t6
    4b52:	30078e63          	beqz	a5,4e6e <__adddf3+0x5f0>
    4b56:	01ff0933          	add	s2,t5,t6
    4b5a:	010707b3          	add	a5,a4,a6
    4b5e:	01e93f33          	sltu	t5,s2,t5
    4b62:	01e78633          	add	a2,a5,t5
    4b66:	00861793          	slli	a5,a2,0x8
    4b6a:	0007d763          	bgez	a5,4b78 <__adddf3+0x2fa>
    4b6e:	ff8007b7          	lui	a5,0xff800
    4b72:	17fd                	addi	a5,a5,-1
    4b74:	8e7d                	and	a2,a2,a5
    4b76:	4485                	li	s1,1
    4b78:	00797793          	andi	a5,s2,7
    4b7c:	e0079fe3          	bnez	a5,499a <__adddf3+0x11c>
    4b80:	01d61793          	slli	a5,a2,0x1d
    4b84:	00395893          	srli	a7,s2,0x3
    4b88:	00f8e8b3          	or	a7,a7,a5
    4b8c:	00365793          	srli	a5,a2,0x3
    4b90:	7ff00713          	li	a4,2047
    4b94:	04e48d63          	beq	s1,a4,4bee <__adddf3+0x370>
    4b98:	07b2                	slli	a5,a5,0xc
    4b9a:	83b1                	srli	a5,a5,0xc
    4b9c:	7ff4f513          	andi	a0,s1,2047
    4ba0:	85ce                	mv	a1,s3
    4ba2:	b581                	j	49e2 <__adddf3+0x164>
    4ba4:	01f86933          	or	s2,a6,t6
    4ba8:	01203933          	snez	s2,s2
    4bac:	997a                	add	s2,s2,t5
    4bae:	01e937b3          	sltu	a5,s2,t5
    4bb2:	00e78633          	add	a2,a5,a4
    4bb6:	00861793          	slli	a5,a2,0x8
    4bba:	fa07dfe3          	bgez	a5,4b78 <__adddf3+0x2fa>
    4bbe:	0485                	addi	s1,s1,1
    4bc0:	7ff00793          	li	a5,2047
    4bc4:	18f49663          	bne	s1,a5,4d50 <__adddf3+0x4d2>
    4bc8:	85ce                	mv	a1,s3
    4bca:	7ff00513          	li	a0,2047
    4bce:	4781                	li	a5,0
    4bd0:	4881                	li	a7,0
    4bd2:	bd01                	j	49e2 <__adddf3+0x164>
    4bd4:	ebc1                	bnez	a5,4c64 <__adddf3+0x3e6>
    4bd6:	3a088463          	beqz	a7,4f7e <__adddf3+0x700>
    4bda:	00361693          	slli	a3,a2,0x3
    4bde:	01d81793          	slli	a5,a6,0x1d
    4be2:	828d                	srli	a3,a3,0x3
    4be4:	00d7e8b3          	or	a7,a5,a3
    4be8:	89f6                	mv	s3,t4
    4bea:	00385793          	srli	a5,a6,0x3
    4bee:	00f8e7b3          	or	a5,a7,a5
    4bf2:	dbf9                	beqz	a5,4bc8 <__adddf3+0x34a>
    4bf4:	4581                	li	a1,0
    4bf6:	7ff00513          	li	a0,2047
    4bfa:	000807b7          	lui	a5,0x80
    4bfe:	4881                	li	a7,0
    4c00:	b3cd                	j	49e2 <__adddf3+0x164>
    4c02:	ff800637          	lui	a2,0xff800
    4c06:	167d                	addi	a2,a2,-1
    4c08:	8e7d                	and	a2,a2,a5
    4c0a:	00797793          	andi	a5,s2,7
    4c0e:	8c99                	sub	s1,s1,a4
    4c10:	d80795e3          	bnez	a5,499a <__adddf3+0x11c>
    4c14:	b7b5                	j	4b80 <__adddf3+0x302>
    4c16:	854a                	mv	a0,s2
    4c18:	20f000ef          	jal	ra,5626 <__clzsi2>
    4c1c:	01850713          	addi	a4,a0,24
    4c20:	47fd                	li	a5,31
    4c22:	d2e7d5e3          	bge	a5,a4,494c <__adddf3+0xce>
    4c26:	ff850613          	addi	a2,a0,-8
    4c2a:	00c917b3          	sll	a5,s2,a2
    4c2e:	4901                	li	s2,0
    4c30:	bb05                	j	4960 <__adddf3+0xe2>
    4c32:	01f86933          	or	s2,a6,t6
    4c36:	01203933          	snez	s2,s2
    4c3a:	b1dd                	j	4920 <__adddf3+0xa2>
    4c3c:	41ff0933          	sub	s2,t5,t6
    4c40:	41070633          	sub	a2,a4,a6
    4c44:	012f3433          	sltu	s0,t5,s2
    4c48:	40860433          	sub	s0,a2,s0
    4c4c:	00841793          	slli	a5,s0,0x8
    4c50:	2407cd63          	bltz	a5,4eaa <__adddf3+0x62c>
    4c54:	008968b3          	or	a7,s2,s0
    4c58:	ce0893e3          	bnez	a7,493e <__adddf3+0xc0>
    4c5c:	4781                	li	a5,0
    4c5e:	4981                	li	s3,0
    4c60:	4481                	li	s1,0
    4c62:	bf1d                	j	4b98 <__adddf3+0x31a>
    4c64:	f80898e3          	bnez	a7,4bf4 <__adddf3+0x376>
    4c68:	050e                	slli	a0,a0,0x3
    4c6a:	01d71793          	slli	a5,a4,0x1d
    4c6e:	810d                	srli	a0,a0,0x3
    4c70:	00a7e8b3          	or	a7,a5,a0
    4c74:	00375793          	srli	a5,a4,0x3
    4c78:	bf9d                	j	4bee <__adddf3+0x370>
    4c7a:	050e                	slli	a0,a0,0x3
    4c7c:	01d71793          	slli	a5,a4,0x1d
    4c80:	810d                	srli	a0,a0,0x3
    4c82:	00a7e8b3          	or	a7,a5,a0
    4c86:	84f2                	mv	s1,t3
    4c88:	00375793          	srli	a5,a4,0x3
    4c8c:	b711                	j	4b90 <__adddf3+0x312>
    4c8e:	40930533          	sub	a0,t1,s1
    4c92:	12048263          	beqz	s1,4db6 <__adddf3+0x538>
    4c96:	008006b7          	lui	a3,0x800
    4c9a:	7ff00793          	li	a5,2047
    4c9e:	8f55                	or	a4,a4,a3
    4ca0:	2ef30d63          	beq	t1,a5,4f9a <__adddf3+0x71c>
    4ca4:	03800793          	li	a5,56
    4ca8:	20a7cb63          	blt	a5,a0,4ebe <__adddf3+0x640>
    4cac:	47fd                	li	a5,31
    4cae:	2aa7c363          	blt	a5,a0,4f54 <__adddf3+0x6d6>
    4cb2:	02000793          	li	a5,32
    4cb6:	8f89                	sub	a5,a5,a0
    4cb8:	00f71933          	sll	s2,a4,a5
    4cbc:	00af56b3          	srl	a3,t5,a0
    4cc0:	00ff17b3          	sll	a5,t5,a5
    4cc4:	00d96933          	or	s2,s2,a3
    4cc8:	00f037b3          	snez	a5,a5
    4ccc:	00a75733          	srl	a4,a4,a0
    4cd0:	00f96933          	or	s2,s2,a5
    4cd4:	983a                	add	a6,a6,a4
    4cd6:	997e                	add	s2,s2,t6
    4cd8:	01f937b3          	sltu	a5,s2,t6
    4cdc:	01078633          	add	a2,a5,a6
    4ce0:	849a                	mv	s1,t1
    4ce2:	bdd1                	j	4bb6 <__adddf3+0x338>
    4ce4:	008006b7          	lui	a3,0x800
    4ce8:	7ff00793          	li	a5,2047
    4cec:	8f55                	or	a4,a4,a3
    4cee:	def319e3          	bne	t1,a5,4ae0 <__adddf3+0x262>
    4cf2:	00361793          	slli	a5,a2,0x3
    4cf6:	838d                	srli	a5,a5,0x3
    4cf8:	01d81893          	slli	a7,a6,0x1d
    4cfc:	0117e8b3          	or	a7,a5,a7
    4d00:	89f6                	mv	s3,t4
    4d02:	00385793          	srli	a5,a6,0x3
    4d06:	b5e5                	j	4bee <__adddf3+0x370>
    4d08:	fe150713          	addi	a4,a0,-31
    4d0c:	02000693          	li	a3,32
    4d10:	00e7d733          	srl	a4,a5,a4
    4d14:	00d60a63          	beq	a2,a3,4d28 <__adddf3+0x4aa>
    4d18:	04000693          	li	a3,64
    4d1c:	40c68633          	sub	a2,a3,a2
    4d20:	00c79633          	sll	a2,a5,a2
    4d24:	00c96933          	or	s2,s2,a2
    4d28:	01203933          	snez	s2,s2
    4d2c:	00e96933          	or	s2,s2,a4
    4d30:	4601                	li	a2,0
    4d32:	4481                	li	s1,0
    4d34:	b591                	j	4b78 <__adddf3+0x2fa>
    4d36:	01ff0933          	add	s2,t5,t6
    4d3a:	010707b3          	add	a5,a4,a6
    4d3e:	01e93633          	sltu	a2,s2,t5
    4d42:	963e                	add	a2,a2,a5
    4d44:	00861793          	slli	a5,a2,0x8
    4d48:	4485                	li	s1,1
    4d4a:	e207d7e3          	bgez	a5,4b78 <__adddf3+0x2fa>
    4d4e:	4489                	li	s1,2
    4d50:	ff8007b7          	lui	a5,0xff800
    4d54:	17fd                	addi	a5,a5,-1
    4d56:	8ff1                	and	a5,a5,a2
    4d58:	00195713          	srli	a4,s2,0x1
    4d5c:	00197913          	andi	s2,s2,1
    4d60:	01276933          	or	s2,a4,s2
    4d64:	01f79893          	slli	a7,a5,0x1f
    4d68:	0128e933          	or	s2,a7,s2
    4d6c:	0017d613          	srli	a2,a5,0x1
    4d70:	b115                	j	4994 <__adddf3+0x116>
    4d72:	fe0e0913          	addi	s2,t3,-32
    4d76:	02000793          	li	a5,32
    4d7a:	012856b3          	srl	a3,a6,s2
    4d7e:	00fe0a63          	beq	t3,a5,4d92 <__adddf3+0x514>
    4d82:	04000913          	li	s2,64
    4d86:	41c90933          	sub	s2,s2,t3
    4d8a:	01281933          	sll	s2,a6,s2
    4d8e:	012fefb3          	or	t6,t6,s2
    4d92:	01f03933          	snez	s2,t6
    4d96:	00d96933          	or	s2,s2,a3
    4d9a:	b659                	j	4920 <__adddf3+0xa2>
    4d9c:	01e76933          	or	s2,a4,t5
    4da0:	01203933          	snez	s2,s2
    4da4:	412f8933          	sub	s2,t6,s2
    4da8:	012fb7b3          	sltu	a5,t6,s2
    4dac:	40f80633          	sub	a2,a6,a5
    4db0:	849a                	mv	s1,t1
    4db2:	89f6                	mv	s3,t4
    4db4:	bea5                	j	492c <__adddf3+0xae>
    4db6:	01e767b3          	or	a5,a4,t5
    4dba:	18078263          	beqz	a5,4f3e <__adddf3+0x6c0>
    4dbe:	fff50793          	addi	a5,a0,-1
    4dc2:	1c078463          	beqz	a5,4f8a <__adddf3+0x70c>
    4dc6:	7ff00693          	li	a3,2047
    4dca:	12d50463          	beq	a0,a3,4ef2 <__adddf3+0x674>
    4dce:	853e                	mv	a0,a5
    4dd0:	bdd1                	j	4ca4 <__adddf3+0x426>
    4dd2:	02000793          	li	a5,32
    4dd6:	41c787b3          	sub	a5,a5,t3
    4dda:	00f816b3          	sll	a3,a6,a5
    4dde:	00ff9933          	sll	s2,t6,a5
    4de2:	01cfd633          	srl	a2,t6,t3
    4de6:	8ed1                	or	a3,a3,a2
    4de8:	01203933          	snez	s2,s2
    4dec:	01c857b3          	srl	a5,a6,t3
    4df0:	0126e933          	or	s2,a3,s2
    4df4:	973e                	add	a4,a4,a5
    4df6:	bb5d                	j	4bac <__adddf3+0x32e>
    4df8:	00361793          	slli	a5,a2,0x3
    4dfc:	838d                	srli	a5,a5,0x3
    4dfe:	01d81893          	slli	a7,a6,0x1d
    4e02:	0117e8b3          	or	a7,a5,a7
    4e06:	84ae                	mv	s1,a1
    4e08:	00385793          	srli	a5,a6,0x3
    4e0c:	89f6                	mv	s3,t4
    4e0e:	b349                	j	4b90 <__adddf3+0x312>
    4e10:	c3ed                	beqz	a5,4ef2 <__adddf3+0x674>
    4e12:	01f86933          	or	s2,a6,t6
    4e16:	dc091fe3          	bnez	s2,4bf4 <__adddf3+0x376>
    4e1a:	050e                	slli	a0,a0,0x3
    4e1c:	01d71793          	slli	a5,a4,0x1d
    4e20:	810d                	srli	a0,a0,0x3
    4e22:	00f568b3          	or	a7,a0,a5
    4e26:	00375793          	srli	a5,a4,0x3
    4e2a:	b3d1                	j	4bee <__adddf3+0x370>
    4e2c:	0e088163          	beqz	a7,4f0e <__adddf3+0x690>
    4e30:	00361693          	slli	a3,a2,0x3
    4e34:	01d81793          	slli	a5,a6,0x1d
    4e38:	828d                	srli	a3,a3,0x3
    4e3a:	00d7e8b3          	or	a7,a5,a3
    4e3e:	89f6                	mv	s3,t4
    4e40:	00385793          	srli	a5,a6,0x3
    4e44:	bb91                	j	4b98 <__adddf3+0x31a>
    4e46:	41ff0933          	sub	s2,t5,t6
    4e4a:	410707b3          	sub	a5,a4,a6
    4e4e:	012f3f33          	sltu	t5,t5,s2
    4e52:	41e78633          	sub	a2,a5,t5
    4e56:	4485                	li	s1,1
    4e58:	bcd1                	j	492c <__adddf3+0xae>
    4e5a:	050e                	slli	a0,a0,0x3
    4e5c:	01d71793          	slli	a5,a4,0x1d
    4e60:	810d                	srli	a0,a0,0x3
    4e62:	00f568b3          	or	a7,a0,a5
    4e66:	84f2                	mv	s1,t3
    4e68:	00375793          	srli	a5,a4,0x3
    4e6c:	b315                	j	4b90 <__adddf3+0x312>
    4e6e:	050e                	slli	a0,a0,0x3
    4e70:	01d71793          	slli	a5,a4,0x1d
    4e74:	810d                	srli	a0,a0,0x3
    4e76:	00a7e8b3          	or	a7,a5,a0
    4e7a:	00375793          	srli	a5,a4,0x3
    4e7e:	bb29                	j	4b98 <__adddf3+0x31a>
    4e80:	7ff00793          	li	a5,2047
    4e84:	d4f682e3          	beq	a3,a5,4bc8 <__adddf3+0x34a>
    4e88:	01ff0933          	add	s2,t5,t6
    4e8c:	01e93633          	sltu	a2,s2,t5
    4e90:	010707b3          	add	a5,a4,a6
    4e94:	97b2                	add	a5,a5,a2
    4e96:	01f79893          	slli	a7,a5,0x1f
    4e9a:	00195913          	srli	s2,s2,0x1
    4e9e:	0128e933          	or	s2,a7,s2
    4ea2:	0017d613          	srli	a2,a5,0x1
    4ea6:	84b6                	mv	s1,a3
    4ea8:	b9c1                	j	4b78 <__adddf3+0x2fa>
    4eaa:	41ef8933          	sub	s2,t6,t5
    4eae:	40e80733          	sub	a4,a6,a4
    4eb2:	012fb633          	sltu	a2,t6,s2
    4eb6:	40c70433          	sub	s0,a4,a2
    4eba:	89f6                	mv	s3,t4
    4ebc:	b449                	j	493e <__adddf3+0xc0>
    4ebe:	01e76933          	or	s2,a4,t5
    4ec2:	01203933          	snez	s2,s2
    4ec6:	bd01                	j	4cd6 <__adddf3+0x458>
    4ec8:	fe058793          	addi	a5,a1,-32
    4ecc:	02000693          	li	a3,32
    4ed0:	00f757b3          	srl	a5,a4,a5
    4ed4:	00d58a63          	beq	a1,a3,4ee8 <__adddf3+0x66a>
    4ed8:	04000693          	li	a3,64
    4edc:	40b685b3          	sub	a1,a3,a1
    4ee0:	00b71733          	sll	a4,a4,a1
    4ee4:	00ef6f33          	or	t5,t5,a4
    4ee8:	01e03933          	snez	s2,t5
    4eec:	00f96933          	or	s2,s2,a5
    4ef0:	bd55                	j	4da4 <__adddf3+0x526>
    4ef2:	00361793          	slli	a5,a2,0x3
    4ef6:	838d                	srli	a5,a5,0x3
    4ef8:	01d81893          	slli	a7,a6,0x1d
    4efc:	0117e8b3          	or	a7,a5,a7
    4f00:	00385793          	srli	a5,a6,0x3
    4f04:	b1ed                	j	4bee <__adddf3+0x370>
    4f06:	00c968b3          	or	a7,s2,a2
    4f0a:	c60897e3          	bnez	a7,4b78 <__adddf3+0x2fa>
    4f0e:	4781                	li	a5,0
    4f10:	4981                	li	s3,0
    4f12:	b159                	j	4b98 <__adddf3+0x31a>
    4f14:	41ef8933          	sub	s2,t6,t5
    4f18:	40e807b3          	sub	a5,a6,a4
    4f1c:	012fb633          	sltu	a2,t6,s2
    4f20:	40c78633          	sub	a2,a5,a2
    4f24:	89f6                	mv	s3,t4
    4f26:	4485                	li	s1,1
    4f28:	b411                	j	492c <__adddf3+0xae>
    4f2a:	00361693          	slli	a3,a2,0x3
    4f2e:	01d81793          	slli	a5,a6,0x1d
    4f32:	828d                	srli	a3,a3,0x3
    4f34:	00d7e8b3          	or	a7,a5,a3
    4f38:	00385793          	srli	a5,a6,0x3
    4f3c:	b9b1                	j	4b98 <__adddf3+0x31a>
    4f3e:	00361693          	slli	a3,a2,0x3
    4f42:	01d81793          	slli	a5,a6,0x1d
    4f46:	828d                	srli	a3,a3,0x3
    4f48:	00d7e8b3          	or	a7,a5,a3
    4f4c:	84aa                	mv	s1,a0
    4f4e:	00385793          	srli	a5,a6,0x3
    4f52:	b93d                	j	4b90 <__adddf3+0x312>
    4f54:	fe050793          	addi	a5,a0,-32
    4f58:	02000693          	li	a3,32
    4f5c:	00f757b3          	srl	a5,a4,a5
    4f60:	00d50a63          	beq	a0,a3,4f74 <__adddf3+0x6f6>
    4f64:	04000693          	li	a3,64
    4f68:	40a68533          	sub	a0,a3,a0
    4f6c:	00a71733          	sll	a4,a4,a0
    4f70:	00ef6f33          	or	t5,t5,a4
    4f74:	01e03933          	snez	s2,t5
    4f78:	00f96933          	or	s2,s2,a5
    4f7c:	bba9                	j	4cd6 <__adddf3+0x458>
    4f7e:	4581                	li	a1,0
    4f80:	7ff00513          	li	a0,2047
    4f84:	000807b7          	lui	a5,0x80
    4f88:	bca9                	j	49e2 <__adddf3+0x164>
    4f8a:	01ff0933          	add	s2,t5,t6
    4f8e:	010707b3          	add	a5,a4,a6
    4f92:	01f93633          	sltu	a2,s2,t6
    4f96:	963e                	add	a2,a2,a5
    4f98:	b375                	j	4d44 <__adddf3+0x4c6>
    4f9a:	00361693          	slli	a3,a2,0x3
    4f9e:	01d81793          	slli	a5,a6,0x1d
    4fa2:	828d                	srli	a3,a3,0x3
    4fa4:	00d7e8b3          	or	a7,a5,a3
    4fa8:	00385793          	srli	a5,a6,0x3
    4fac:	b189                	j	4bee <__adddf3+0x370>

00004fae <__divdf3>:
    4fae:	7139                	addi	sp,sp,-64
    4fb0:	0145d793          	srli	a5,a1,0x14
    4fb4:	dc22                	sw	s0,56(sp)
    4fb6:	d84a                	sw	s2,48(sp)
    4fb8:	d256                	sw	s5,36(sp)
    4fba:	892a                	mv	s2,a0
    4fbc:	00c59413          	slli	s0,a1,0xc
    4fc0:	de06                	sw	ra,60(sp)
    4fc2:	da26                	sw	s1,52(sp)
    4fc4:	d64e                	sw	s3,44(sp)
    4fc6:	d452                	sw	s4,40(sp)
    4fc8:	d05a                	sw	s6,32(sp)
    4fca:	ce5e                	sw	s7,28(sp)
    4fcc:	7ff7f513          	andi	a0,a5,2047
    4fd0:	8031                	srli	s0,s0,0xc
    4fd2:	01f5da93          	srli	s5,a1,0x1f
    4fd6:	10050a63          	beqz	a0,50ea <__divdf3+0x13c>
    4fda:	7ff00793          	li	a5,2047
    4fde:	14f50963          	beq	a0,a5,5130 <__divdf3+0x182>
    4fe2:	01d95a13          	srli	s4,s2,0x1d
    4fe6:	040e                	slli	s0,s0,0x3
    4fe8:	008a6433          	or	s0,s4,s0
    4fec:	00800a37          	lui	s4,0x800
    4ff0:	01446a33          	or	s4,s0,s4
    4ff4:	00391b13          	slli	s6,s2,0x3
    4ff8:	c0150493          	addi	s1,a0,-1023
    4ffc:	4401                	li	s0,0
    4ffe:	4b81                	li	s7,0
    5000:	0146d813          	srli	a6,a3,0x14
    5004:	00c69913          	slli	s2,a3,0xc
    5008:	7ff87813          	andi	a6,a6,2047
    500c:	88b2                	mv	a7,a2
    500e:	00c95913          	srli	s2,s2,0xc
    5012:	01f6d993          	srli	s3,a3,0x1f
    5016:	08080e63          	beqz	a6,50b2 <__divdf3+0x104>
    501a:	7ff00793          	li	a5,2047
    501e:	04f80063          	beq	a6,a5,505e <__divdf3+0xb0>
    5022:	01d65713          	srli	a4,a2,0x1d
    5026:	090e                	slli	s2,s2,0x3
    5028:	01276933          	or	s2,a4,s2
    502c:	c0180813          	addi	a6,a6,-1023 # ffc01 <_data_lma+0xf9855>
    5030:	008007b7          	lui	a5,0x800
    5034:	00f96733          	or	a4,s2,a5
    5038:	00361893          	slli	a7,a2,0x3
    503c:	410484b3          	sub	s1,s1,a6
    5040:	4581                	li	a1,0
    5042:	47bd                	li	a5,15
    5044:	013ac833          	xor	a6,s5,s3
    5048:	1a87e263          	bltu	a5,s0,51ec <__divdf3+0x23e>
    504c:	00001797          	auipc	a5,0x1
    5050:	1e478793          	addi	a5,a5,484 # 6230 <Servers+0x30>
    5054:	040a                	slli	s0,s0,0x2
    5056:	943e                	add	s0,s0,a5
    5058:	4010                	lw	a2,0(s0)
    505a:	963e                	add	a2,a2,a5
    505c:	8602                	jr	a2
    505e:	00c96733          	or	a4,s2,a2
    5062:	80148493          	addi	s1,s1,-2047
    5066:	10071063          	bnez	a4,5166 <__divdf3+0x1b8>
    506a:	00246413          	ori	s0,s0,2
    506e:	4881                	li	a7,0
    5070:	4589                	li	a1,2
    5072:	bfc1                	j	5042 <__divdf3+0x94>
    5074:	7ff00613          	li	a2,2047
    5078:	4781                	li	a5,0
    507a:	4701                	li	a4,0
    507c:	07b2                	slli	a5,a5,0xc
    507e:	50f2                	lw	ra,60(sp)
    5080:	5462                	lw	s0,56(sp)
    5082:	0652                	slli	a2,a2,0x14
    5084:	83b1                	srli	a5,a5,0xc
    5086:	087e                	slli	a6,a6,0x1f
    5088:	8fd1                	or	a5,a5,a2
    508a:	0107e7b3          	or	a5,a5,a6
    508e:	54d2                	lw	s1,52(sp)
    5090:	5942                	lw	s2,48(sp)
    5092:	59b2                	lw	s3,44(sp)
    5094:	5a22                	lw	s4,40(sp)
    5096:	5a92                	lw	s5,36(sp)
    5098:	5b02                	lw	s6,32(sp)
    509a:	4bf2                	lw	s7,28(sp)
    509c:	853a                	mv	a0,a4
    509e:	85be                	mv	a1,a5
    50a0:	6121                	addi	sp,sp,64
    50a2:	8082                	ret
    50a4:	4801                	li	a6,0
    50a6:	7ff00613          	li	a2,2047
    50aa:	000807b7          	lui	a5,0x80
    50ae:	4701                	li	a4,0
    50b0:	b7f1                	j	507c <__divdf3+0xce>
    50b2:	00c96733          	or	a4,s2,a2
    50b6:	c35d                	beqz	a4,515c <__divdf3+0x1ae>
    50b8:	30090563          	beqz	s2,53c2 <__divdf3+0x414>
    50bc:	854a                	mv	a0,s2
    50be:	c432                	sw	a2,8(sp)
    50c0:	239d                	jal	5626 <__clzsi2>
    50c2:	4622                	lw	a2,8(sp)
    50c4:	ff550713          	addi	a4,a0,-11
    50c8:	47f5                	li	a5,29
    50ca:	ff850693          	addi	a3,a0,-8
    50ce:	8f99                	sub	a5,a5,a4
    50d0:	00d91933          	sll	s2,s2,a3
    50d4:	00f657b3          	srl	a5,a2,a5
    50d8:	0127e733          	or	a4,a5,s2
    50dc:	00d618b3          	sll	a7,a2,a3
    50e0:	9526                	add	a0,a0,s1
    50e2:	3f350493          	addi	s1,a0,1011
    50e6:	4581                	li	a1,0
    50e8:	bfa9                	j	5042 <__divdf3+0x94>
    50ea:	01246a33          	or	s4,s0,s2
    50ee:	060a0263          	beqz	s4,5152 <__divdf3+0x1a4>
    50f2:	c636                	sw	a3,12(sp)
    50f4:	c432                	sw	a2,8(sp)
    50f6:	2a040563          	beqz	s0,53a0 <__divdf3+0x3f2>
    50fa:	8522                	mv	a0,s0
    50fc:	232d                	jal	5626 <__clzsi2>
    50fe:	4622                	lw	a2,8(sp)
    5100:	46b2                	lw	a3,12(sp)
    5102:	84aa                	mv	s1,a0
    5104:	ff550713          	addi	a4,a0,-11
    5108:	4a75                	li	s4,29
    510a:	ff848b13          	addi	s6,s1,-8
    510e:	40ea0a33          	sub	s4,s4,a4
    5112:	01641433          	sll	s0,s0,s6
    5116:	01495a33          	srl	s4,s2,s4
    511a:	008a6a33          	or	s4,s4,s0
    511e:	01691b33          	sll	s6,s2,s6
    5122:	c0d00513          	li	a0,-1011
    5126:	409504b3          	sub	s1,a0,s1
    512a:	4401                	li	s0,0
    512c:	4b81                	li	s7,0
    512e:	bdc9                	j	5000 <__divdf3+0x52>
    5130:	01246a33          	or	s4,s0,s2
    5134:	000a1863          	bnez	s4,5144 <__divdf3+0x196>
    5138:	4421                	li	s0,8
    513a:	4b01                	li	s6,0
    513c:	7ff00493          	li	s1,2047
    5140:	4b89                	li	s7,2
    5142:	bd7d                	j	5000 <__divdf3+0x52>
    5144:	8a22                	mv	s4,s0
    5146:	8b4a                	mv	s6,s2
    5148:	4431                	li	s0,12
    514a:	7ff00493          	li	s1,2047
    514e:	4b8d                	li	s7,3
    5150:	bd45                	j	5000 <__divdf3+0x52>
    5152:	4411                	li	s0,4
    5154:	4b01                	li	s6,0
    5156:	4481                	li	s1,0
    5158:	4b85                	li	s7,1
    515a:	b55d                	j	5000 <__divdf3+0x52>
    515c:	00146413          	ori	s0,s0,1
    5160:	4881                	li	a7,0
    5162:	4585                	li	a1,1
    5164:	bdf9                	j	5042 <__divdf3+0x94>
    5166:	00346413          	ori	s0,s0,3
    516a:	874a                	mv	a4,s2
    516c:	458d                	li	a1,3
    516e:	bdd1                	j	5042 <__divdf3+0x94>
    5170:	2e050863          	beqz	a0,5460 <__divdf3+0x4b2>
    5174:	4785                	li	a5,1
    5176:	8f89                	sub	a5,a5,a0
    5178:	03800693          	li	a3,56
    517c:	32f6db63          	bge	a3,a5,54b2 <__divdf3+0x504>
    5180:	4601                	li	a2,0
    5182:	4781                	li	a5,0
    5184:	4701                	li	a4,0
    5186:	bddd                	j	507c <__divdf3+0xce>
    5188:	86ce                	mv	a3,s3
    518a:	4789                	li	a5,2
    518c:	3af58b63          	beq	a1,a5,5542 <__divdf3+0x594>
    5190:	478d                	li	a5,3
    5192:	f0f589e3          	beq	a1,a5,50a4 <__divdf3+0xf6>
    5196:	4785                	li	a5,1
    5198:	8836                	mv	a6,a3
    519a:	fef583e3          	beq	a1,a5,5180 <__divdf3+0x1d2>
    519e:	3ff48513          	addi	a0,s1,1023
    51a2:	fca057e3          	blez	a0,5170 <__divdf3+0x1c2>
    51a6:	0078f793          	andi	a5,a7,7
    51aa:	28079463          	bnez	a5,5432 <__divdf3+0x484>
    51ae:	0038d693          	srli	a3,a7,0x3
    51b2:	00771793          	slli	a5,a4,0x7
    51b6:	0007d863          	bgez	a5,51c6 <__divdf3+0x218>
    51ba:	ff0007b7          	lui	a5,0xff000
    51be:	17fd                	addi	a5,a5,-1
    51c0:	8f7d                	and	a4,a4,a5
    51c2:	40048513          	addi	a0,s1,1024
    51c6:	7fe00793          	li	a5,2046
    51ca:	eaa7c5e3          	blt	a5,a0,5074 <__divdf3+0xc6>
    51ce:	01d71613          	slli	a2,a4,0x1d
    51d2:	00971793          	slli	a5,a4,0x9
    51d6:	83b1                	srli	a5,a5,0xc
    51d8:	00d66733          	or	a4,a2,a3
    51dc:	7ff57613          	andi	a2,a0,2047
    51e0:	bd71                	j	507c <__divdf3+0xce>
    51e2:	86d6                	mv	a3,s5
    51e4:	8752                	mv	a4,s4
    51e6:	88da                	mv	a7,s6
    51e8:	85de                	mv	a1,s7
    51ea:	b745                	j	518a <__divdf3+0x1dc>
    51ec:	21476f63          	bltu	a4,s4,540a <__divdf3+0x45c>
    51f0:	20ea0b63          	beq	s4,a4,5406 <__divdf3+0x458>
    51f4:	86da                	mv	a3,s6
    51f6:	14fd                	addi	s1,s1,-1
    51f8:	8452                	mv	s0,s4
    51fa:	4b01                	li	s6,0
    51fc:	00871793          	slli	a5,a4,0x8
    5200:	0188d313          	srli	t1,a7,0x18
    5204:	00f36333          	or	t1,t1,a5
    5208:	01035e93          	srli	t4,t1,0x10
    520c:	03d457b3          	divu	a5,s0,t4
    5210:	01031f13          	slli	t5,t1,0x10
    5214:	010f5f13          	srli	t5,t5,0x10
    5218:	0106d593          	srli	a1,a3,0x10
    521c:	00889e13          	slli	t3,a7,0x8
    5220:	03d47433          	remu	s0,s0,t4
    5224:	02ff0733          	mul	a4,t5,a5
    5228:	0442                	slli	s0,s0,0x10
    522a:	8dc1                	or	a1,a1,s0
    522c:	00e5fb63          	bgeu	a1,a4,5242 <__divdf3+0x294>
    5230:	959a                	add	a1,a1,t1
    5232:	fff78613          	addi	a2,a5,-1 # feffffff <_eusrstack+0xdeff7fff>
    5236:	2665ec63          	bltu	a1,t1,54ae <__divdf3+0x500>
    523a:	26e5fa63          	bgeu	a1,a4,54ae <__divdf3+0x500>
    523e:	17f9                	addi	a5,a5,-2
    5240:	959a                	add	a1,a1,t1
    5242:	8d99                	sub	a1,a1,a4
    5244:	03d5d733          	divu	a4,a1,t4
    5248:	06c2                	slli	a3,a3,0x10
    524a:	82c1                	srli	a3,a3,0x10
    524c:	03d5f5b3          	remu	a1,a1,t4
    5250:	02ef0633          	mul	a2,t5,a4
    5254:	05c2                	slli	a1,a1,0x10
    5256:	8dd5                	or	a1,a1,a3
    5258:	00c5fb63          	bgeu	a1,a2,526e <__divdf3+0x2c0>
    525c:	959a                	add	a1,a1,t1
    525e:	fff70693          	addi	a3,a4,-1 # 7fffff <_data_lma+0x7f9c53>
    5262:	2465e463          	bltu	a1,t1,54aa <__divdf3+0x4fc>
    5266:	24c5f263          	bgeu	a1,a2,54aa <__divdf3+0x4fc>
    526a:	1779                	addi	a4,a4,-2
    526c:	959a                	add	a1,a1,t1
    526e:	07c2                	slli	a5,a5,0x10
    5270:	6441                	lui	s0,0x10
    5272:	8f5d                	or	a4,a4,a5
    5274:	fff40793          	addi	a5,s0,-1 # ffff <_data_lma+0x9c53>
    5278:	00f77533          	and	a0,a4,a5
    527c:	01075893          	srli	a7,a4,0x10
    5280:	010e5f93          	srli	t6,t3,0x10
    5284:	00fe77b3          	and	a5,t3,a5
    5288:	02f502b3          	mul	t0,a0,a5
    528c:	40c586b3          	sub	a3,a1,a2
    5290:	02f883b3          	mul	t2,a7,a5
    5294:	0102d593          	srli	a1,t0,0x10
    5298:	02af8633          	mul	a2,t6,a0
    529c:	961e                	add	a2,a2,t2
    529e:	962e                	add	a2,a2,a1
    52a0:	03f88533          	mul	a0,a7,t6
    52a4:	00767363          	bgeu	a2,t2,52aa <__divdf3+0x2fc>
    52a8:	9522                	add	a0,a0,s0
    52aa:	68c1                	lui	a7,0x10
    52ac:	18fd                	addi	a7,a7,-1
    52ae:	01065593          	srli	a1,a2,0x10
    52b2:	01167633          	and	a2,a2,a7
    52b6:	0642                	slli	a2,a2,0x10
    52b8:	0112f8b3          	and	a7,t0,a7
    52bc:	95aa                	add	a1,a1,a0
    52be:	9646                	add	a2,a2,a7
    52c0:	12b6e463          	bltu	a3,a1,53e8 <__divdf3+0x43a>
    52c4:	12b68063          	beq	a3,a1,53e4 <__divdf3+0x436>
    52c8:	40cb0633          	sub	a2,s6,a2
    52cc:	8e8d                	sub	a3,a3,a1
    52ce:	00cb3b33          	sltu	s6,s6,a2
    52d2:	41668b33          	sub	s6,a3,s6
    52d6:	3ff48513          	addi	a0,s1,1023
    52da:	17630a63          	beq	t1,s6,544e <__divdf3+0x4a0>
    52de:	03db58b3          	divu	a7,s6,t4
    52e2:	01065593          	srli	a1,a2,0x10
    52e6:	03db7b33          	remu	s6,s6,t4
    52ea:	031f06b3          	mul	a3,t5,a7
    52ee:	0b42                	slli	s6,s6,0x10
    52f0:	0165eb33          	or	s6,a1,s6
    52f4:	00db7b63          	bgeu	s6,a3,530a <__divdf3+0x35c>
    52f8:	9b1a                	add	s6,s6,t1
    52fa:	fff88593          	addi	a1,a7,-1 # ffff <_data_lma+0x9c53>
    52fe:	206b6b63          	bltu	s6,t1,5514 <__divdf3+0x566>
    5302:	20db7963          	bgeu	s6,a3,5514 <__divdf3+0x566>
    5306:	18f9                	addi	a7,a7,-2
    5308:	9b1a                	add	s6,s6,t1
    530a:	40db0b33          	sub	s6,s6,a3
    530e:	03db56b3          	divu	a3,s6,t4
    5312:	0642                	slli	a2,a2,0x10
    5314:	8241                	srli	a2,a2,0x10
    5316:	03db7b33          	remu	s6,s6,t4
    531a:	02df0f33          	mul	t5,t5,a3
    531e:	0b42                	slli	s6,s6,0x10
    5320:	01666633          	or	a2,a2,s6
    5324:	01e67b63          	bgeu	a2,t5,533a <__divdf3+0x38c>
    5328:	961a                	add	a2,a2,t1
    532a:	fff68593          	addi	a1,a3,-1 # 7fffff <_data_lma+0x7f9c53>
    532e:	1e666563          	bltu	a2,t1,5518 <__divdf3+0x56a>
    5332:	1fe67363          	bgeu	a2,t5,5518 <__divdf3+0x56a>
    5336:	16f9                	addi	a3,a3,-2
    5338:	961a                	add	a2,a2,t1
    533a:	08c2                	slli	a7,a7,0x10
    533c:	00d8e8b3          	or	a7,a7,a3
    5340:	01089593          	slli	a1,a7,0x10
    5344:	0108d293          	srli	t0,a7,0x10
    5348:	81c1                	srli	a1,a1,0x10
    534a:	02f58eb3          	mul	t4,a1,a5
    534e:	41e60633          	sub	a2,a2,t5
    5352:	02bf85b3          	mul	a1,t6,a1
    5356:	010ed693          	srli	a3,t4,0x10
    535a:	02f287b3          	mul	a5,t0,a5
    535e:	95be                	add	a1,a1,a5
    5360:	96ae                	add	a3,a3,a1
    5362:	025f8fb3          	mul	t6,t6,t0
    5366:	00f6f463          	bgeu	a3,a5,536e <__divdf3+0x3c0>
    536a:	67c1                	lui	a5,0x10
    536c:	9fbe                	add	t6,t6,a5
    536e:	65c1                	lui	a1,0x10
    5370:	15fd                	addi	a1,a1,-1
    5372:	0106d793          	srli	a5,a3,0x10
    5376:	8eed                	and	a3,a3,a1
    5378:	06c2                	slli	a3,a3,0x10
    537a:	00befeb3          	and	t4,t4,a1
    537e:	9fbe                	add	t6,t6,a5
    5380:	96f6                	add	a3,a3,t4
    5382:	09f67d63          	bgeu	a2,t6,541c <__divdf3+0x46e>
    5386:	961a                	add	a2,a2,t1
    5388:	fff88793          	addi	a5,a7,-1
    538c:	1a666763          	bltu	a2,t1,553a <__divdf3+0x58c>
    5390:	19f66663          	bltu	a2,t6,551c <__divdf3+0x56e>
    5394:	1bf60d63          	beq	a2,t6,554e <__divdf3+0x5a0>
    5398:	88be                	mv	a7,a5
    539a:	0018e893          	ori	a7,a7,1
    539e:	b511                	j	51a2 <__divdf3+0x1f4>
    53a0:	854a                	mv	a0,s2
    53a2:	2451                	jal	5626 <__clzsi2>
    53a4:	01550713          	addi	a4,a0,21
    53a8:	45f1                	li	a1,28
    53aa:	02050493          	addi	s1,a0,32
    53ae:	4622                	lw	a2,8(sp)
    53b0:	46b2                	lw	a3,12(sp)
    53b2:	d4e5dbe3          	bge	a1,a4,5108 <__divdf3+0x15a>
    53b6:	ff850413          	addi	s0,a0,-8
    53ba:	00891a33          	sll	s4,s2,s0
    53be:	4b01                	li	s6,0
    53c0:	b38d                	j	5122 <__divdf3+0x174>
    53c2:	8532                	mv	a0,a2
    53c4:	c432                	sw	a2,8(sp)
    53c6:	2485                	jal	5626 <__clzsi2>
    53c8:	01550713          	addi	a4,a0,21
    53cc:	46f1                	li	a3,28
    53ce:	87aa                	mv	a5,a0
    53d0:	4622                	lw	a2,8(sp)
    53d2:	02050513          	addi	a0,a0,32
    53d6:	cee6d9e3          	bge	a3,a4,50c8 <__divdf3+0x11a>
    53da:	17e1                	addi	a5,a5,-8
    53dc:	00f61733          	sll	a4,a2,a5
    53e0:	4881                	li	a7,0
    53e2:	b9fd                	j	50e0 <__divdf3+0x132>
    53e4:	eecb72e3          	bgeu	s6,a2,52c8 <__divdf3+0x31a>
    53e8:	9b72                	add	s6,s6,t3
    53ea:	01cb3533          	sltu	a0,s6,t3
    53ee:	951a                	add	a0,a0,t1
    53f0:	96aa                	add	a3,a3,a0
    53f2:	fff70513          	addi	a0,a4,-1
    53f6:	02d37863          	bgeu	t1,a3,5426 <__divdf3+0x478>
    53fa:	10b6e663          	bltu	a3,a1,5506 <__divdf3+0x558>
    53fe:	10d58263          	beq	a1,a3,5502 <__divdf3+0x554>
    5402:	872a                	mv	a4,a0
    5404:	b5d1                	j	52c8 <__divdf3+0x31a>
    5406:	df1b67e3          	bltu	s6,a7,51f4 <__divdf3+0x246>
    540a:	001b5593          	srli	a1,s6,0x1
    540e:	01fa1693          	slli	a3,s4,0x1f
    5412:	001a5413          	srli	s0,s4,0x1
    5416:	8ecd                	or	a3,a3,a1
    5418:	0b7e                	slli	s6,s6,0x1f
    541a:	b3cd                	j	51fc <__divdf3+0x24e>
    541c:	f7f61fe3          	bne	a2,t6,539a <__divdf3+0x3ec>
    5420:	d80681e3          	beqz	a3,51a2 <__divdf3+0x1f4>
    5424:	b78d                	j	5386 <__divdf3+0x3d8>
    5426:	fcd31ee3          	bne	t1,a3,5402 <__divdf3+0x454>
    542a:	fdcb78e3          	bgeu	s6,t3,53fa <__divdf3+0x44c>
    542e:	872a                	mv	a4,a0
    5430:	bd61                	j	52c8 <__divdf3+0x31a>
    5432:	00f8f793          	andi	a5,a7,15
    5436:	4691                	li	a3,4
    5438:	d6d78be3          	beq	a5,a3,51ae <__divdf3+0x200>
    543c:	ffc8b793          	sltiu	a5,a7,-4
    5440:	00488693          	addi	a3,a7,4
    5444:	0017c793          	xori	a5,a5,1
    5448:	828d                	srli	a3,a3,0x3
    544a:	973e                	add	a4,a4,a5
    544c:	b39d                	j	51b2 <__divdf3+0x204>
    544e:	4681                	li	a3,0
    5450:	4785                	li	a5,1
    5452:	fea04ce3          	bgtz	a0,544a <__divdf3+0x49c>
    5456:	58fd                	li	a7,-1
    5458:	d0051ee3          	bnez	a0,5174 <__divdf3+0x1c6>
    545c:	c0100493          	li	s1,-1023
    5460:	4785                	li	a5,1
    5462:	41e48513          	addi	a0,s1,1054
    5466:	00a716b3          	sll	a3,a4,a0
    546a:	00f8d633          	srl	a2,a7,a5
    546e:	00a89533          	sll	a0,a7,a0
    5472:	8ed1                	or	a3,a3,a2
    5474:	00a03533          	snez	a0,a0
    5478:	8ec9                	or	a3,a3,a0
    547a:	0076f613          	andi	a2,a3,7
    547e:	00f75733          	srl	a4,a4,a5
    5482:	ce01                	beqz	a2,549a <__divdf3+0x4ec>
    5484:	00f6f793          	andi	a5,a3,15
    5488:	4611                	li	a2,4
    548a:	00c78863          	beq	a5,a2,549a <__divdf3+0x4ec>
    548e:	00468793          	addi	a5,a3,4
    5492:	00d7b6b3          	sltu	a3,a5,a3
    5496:	9736                	add	a4,a4,a3
    5498:	86be                	mv	a3,a5
    549a:	00871793          	slli	a5,a4,0x8
    549e:	0407d863          	bgez	a5,54ee <__divdf3+0x540>
    54a2:	4605                	li	a2,1
    54a4:	4781                	li	a5,0
    54a6:	4701                	li	a4,0
    54a8:	bed1                	j	507c <__divdf3+0xce>
    54aa:	8736                	mv	a4,a3
    54ac:	b3c9                	j	526e <__divdf3+0x2c0>
    54ae:	87b2                	mv	a5,a2
    54b0:	bb49                	j	5242 <__divdf3+0x294>
    54b2:	46fd                	li	a3,31
    54b4:	faf6d7e3          	bge	a3,a5,5462 <__divdf3+0x4b4>
    54b8:	5605                	li	a2,-31
    54ba:	8e09                	sub	a2,a2,a0
    54bc:	02000693          	li	a3,32
    54c0:	00c75633          	srl	a2,a4,a2
    54c4:	00d78863          	beq	a5,a3,54d4 <__divdf3+0x526>
    54c8:	43e48793          	addi	a5,s1,1086
    54cc:	00f717b3          	sll	a5,a4,a5
    54d0:	00f8e8b3          	or	a7,a7,a5
    54d4:	011036b3          	snez	a3,a7
    54d8:	8ed1                	or	a3,a3,a2
    54da:	0076f613          	andi	a2,a3,7
    54de:	4781                	li	a5,0
    54e0:	ce01                	beqz	a2,54f8 <__divdf3+0x54a>
    54e2:	00f6f793          	andi	a5,a3,15
    54e6:	4611                	li	a2,4
    54e8:	4701                	li	a4,0
    54ea:	fac792e3          	bne	a5,a2,548e <__divdf3+0x4e0>
    54ee:	00971793          	slli	a5,a4,0x9
    54f2:	01d71613          	slli	a2,a4,0x1d
    54f6:	83b1                	srli	a5,a5,0xc
    54f8:	0036d713          	srli	a4,a3,0x3
    54fc:	8f51                	or	a4,a4,a2
    54fe:	4601                	li	a2,0
    5500:	beb5                	j	507c <__divdf3+0xce>
    5502:	f0cb70e3          	bgeu	s6,a2,5402 <__divdf3+0x454>
    5506:	9b72                	add	s6,s6,t3
    5508:	01cb3533          	sltu	a0,s6,t3
    550c:	951a                	add	a0,a0,t1
    550e:	1779                	addi	a4,a4,-2
    5510:	96aa                	add	a3,a3,a0
    5512:	bb5d                	j	52c8 <__divdf3+0x31a>
    5514:	88ae                	mv	a7,a1
    5516:	bbd5                	j	530a <__divdf3+0x35c>
    5518:	86ae                	mv	a3,a1
    551a:	b505                	j	533a <__divdf3+0x38c>
    551c:	001e1793          	slli	a5,t3,0x1
    5520:	01c7be33          	sltu	t3,a5,t3
    5524:	9372                	add	t1,t1,t3
    5526:	961a                	add	a2,a2,t1
    5528:	18f9                	addi	a7,a7,-2
    552a:	8e3e                	mv	t3,a5
    552c:	e7f617e3          	bne	a2,t6,539a <__divdf3+0x3ec>
    5530:	c6de09e3          	beq	t3,a3,51a2 <__divdf3+0x1f4>
    5534:	0018e893          	ori	a7,a7,1
    5538:	b1ad                	j	51a2 <__divdf3+0x1f4>
    553a:	88be                	mv	a7,a5
    553c:	fff60ae3          	beq	a2,t6,5530 <__divdf3+0x582>
    5540:	bda9                	j	539a <__divdf3+0x3ec>
    5542:	8836                	mv	a6,a3
    5544:	7ff00613          	li	a2,2047
    5548:	4781                	li	a5,0
    554a:	4701                	li	a4,0
    554c:	be05                	j	507c <__divdf3+0xce>
    554e:	fcde67e3          	bltu	t3,a3,551c <__divdf3+0x56e>
    5552:	88be                	mv	a7,a5
    5554:	fede10e3          	bne	t3,a3,5534 <__divdf3+0x586>
    5558:	b1a9                	j	51a2 <__divdf3+0x1f4>

0000555a <__fixunsdfsi>:
    555a:	0145d793          	srli	a5,a1,0x14
    555e:	001006b7          	lui	a3,0x100
    5562:	fff68713          	addi	a4,a3,-1 # fffff <_data_lma+0xf9c53>
    5566:	7ff7f793          	andi	a5,a5,2047
    556a:	3fe00613          	li	a2,1022
    556e:	882a                	mv	a6,a0
    5570:	8f6d                	and	a4,a4,a1
    5572:	4501                	li	a0,0
    5574:	81fd                	srli	a1,a1,0x1f
    5576:	00f65463          	bge	a2,a5,557e <__fixunsdfsi+0x24>
    557a:	c199                	beqz	a1,5580 <__fixunsdfsi+0x26>
    557c:	8082                	ret
    557e:	8082                	ret
    5580:	41e00613          	li	a2,1054
    5584:	557d                	li	a0,-1
    5586:	fef64be3          	blt	a2,a5,557c <__fixunsdfsi+0x22>
    558a:	43300513          	li	a0,1075
    558e:	8d1d                	sub	a0,a0,a5
    5590:	467d                	li	a2,31
    5592:	8f55                	or	a4,a4,a3
    5594:	00a64a63          	blt	a2,a0,55a8 <__fixunsdfsi+0x4e>
    5598:	bed78793          	addi	a5,a5,-1043 # fbed <_data_lma+0x9841>
    559c:	00f71733          	sll	a4,a4,a5
    55a0:	00a85533          	srl	a0,a6,a0
    55a4:	8d59                	or	a0,a0,a4
    55a6:	8082                	ret
    55a8:	41300513          	li	a0,1043
    55ac:	40f507b3          	sub	a5,a0,a5
    55b0:	00f75533          	srl	a0,a4,a5
    55b4:	8082                	ret

000055b6 <__floatsidf>:
    55b6:	1141                	addi	sp,sp,-16
    55b8:	c606                	sw	ra,12(sp)
    55ba:	c422                	sw	s0,8(sp)
    55bc:	c226                	sw	s1,4(sp)
    55be:	cd05                	beqz	a0,55f6 <__floatsidf+0x40>
    55c0:	41f55793          	srai	a5,a0,0x1f
    55c4:	00a7c4b3          	xor	s1,a5,a0
    55c8:	8c9d                	sub	s1,s1,a5
    55ca:	842a                	mv	s0,a0
    55cc:	8526                	mv	a0,s1
    55ce:	28a1                	jal	5626 <__clzsi2>
    55d0:	41e00693          	li	a3,1054
    55d4:	8e89                	sub	a3,a3,a0
    55d6:	47a9                	li	a5,10
    55d8:	807d                	srli	s0,s0,0x1f
    55da:	7ff6f693          	andi	a3,a3,2047
    55de:	02a7cd63          	blt	a5,a0,5618 <__floatsidf+0x62>
    55e2:	472d                	li	a4,11
    55e4:	8f09                	sub	a4,a4,a0
    55e6:	00e4d7b3          	srl	a5,s1,a4
    55ea:	0555                	addi	a0,a0,21
    55ec:	07b2                	slli	a5,a5,0xc
    55ee:	00a494b3          	sll	s1,s1,a0
    55f2:	83b1                	srli	a5,a5,0xc
    55f4:	a029                	j	55fe <__floatsidf+0x48>
    55f6:	4401                	li	s0,0
    55f8:	4681                	li	a3,0
    55fa:	4781                	li	a5,0
    55fc:	4481                	li	s1,0
    55fe:	07b2                	slli	a5,a5,0xc
    5600:	06d2                	slli	a3,a3,0x14
    5602:	83b1                	srli	a5,a5,0xc
    5604:	047e                	slli	s0,s0,0x1f
    5606:	8fd5                	or	a5,a5,a3
    5608:	8fc1                	or	a5,a5,s0
    560a:	40b2                	lw	ra,12(sp)
    560c:	4422                	lw	s0,8(sp)
    560e:	8526                	mv	a0,s1
    5610:	85be                	mv	a1,a5
    5612:	4492                	lw	s1,4(sp)
    5614:	0141                	addi	sp,sp,16
    5616:	8082                	ret
    5618:	1555                	addi	a0,a0,-11
    561a:	00a497b3          	sll	a5,s1,a0
    561e:	07b2                	slli	a5,a5,0xc
    5620:	83b1                	srli	a5,a5,0xc
    5622:	4481                	li	s1,0
    5624:	bfe9                	j	55fe <__floatsidf+0x48>

00005626 <__clzsi2>:
    5626:	67c1                	lui	a5,0x10
    5628:	02f57c63          	bgeu	a0,a5,5660 <__clzsi2+0x3a>
    562c:	0ff00793          	li	a5,255
    5630:	02000713          	li	a4,32
    5634:	00a7eb63          	bltu	a5,a0,564a <__clzsi2+0x24>
    5638:	00001797          	auipc	a5,0x1
    563c:	c3878793          	addi	a5,a5,-968 # 6270 <__clz_tab>
    5640:	97aa                	add	a5,a5,a0
    5642:	2388                	lbu	a0,0(a5)
    5644:	40a70533          	sub	a0,a4,a0
    5648:	8082                	ret
    564a:	8121                	srli	a0,a0,0x8
    564c:	00001797          	auipc	a5,0x1
    5650:	c2478793          	addi	a5,a5,-988 # 6270 <__clz_tab>
    5654:	97aa                	add	a5,a5,a0
    5656:	2388                	lbu	a0,0(a5)
    5658:	4761                	li	a4,24
    565a:	40a70533          	sub	a0,a4,a0
    565e:	8082                	ret
    5660:	010007b7          	lui	a5,0x1000
    5664:	00f56d63          	bltu	a0,a5,567e <__clzsi2+0x58>
    5668:	8161                	srli	a0,a0,0x18
    566a:	00001797          	auipc	a5,0x1
    566e:	c0678793          	addi	a5,a5,-1018 # 6270 <__clz_tab>
    5672:	97aa                	add	a5,a5,a0
    5674:	2388                	lbu	a0,0(a5)
    5676:	4721                	li	a4,8
    5678:	40a70533          	sub	a0,a4,a0
    567c:	8082                	ret
    567e:	8141                	srli	a0,a0,0x10
    5680:	00001797          	auipc	a5,0x1
    5684:	bf078793          	addi	a5,a5,-1040 # 6270 <__clz_tab>
    5688:	97aa                	add	a5,a5,a0
    568a:	2388                	lbu	a0,0(a5)
    568c:	4741                	li	a4,16
    568e:	40a70533          	sub	a0,a4,a0
    5692:	8082                	ret

00005694 <malloc>:
    5694:	80c18793          	addi	a5,gp,-2036 # 200001ac <_impure_ptr>
    5698:	85aa                	mv	a1,a0
    569a:	4388                	lw	a0,0(a5)
    569c:	a28d                	j	57fe <_malloc_r>

0000569e <free>:
    569e:	80c18793          	addi	a5,gp,-2036 # 200001ac <_impure_ptr>
    56a2:	85aa                	mv	a1,a0
    56a4:	4388                	lw	a0,0(a5)
    56a6:	a855                	j	575a <_free_r>

000056a8 <memcpy>:
    56a8:	00a5c7b3          	xor	a5,a1,a0
    56ac:	8b8d                	andi	a5,a5,3
    56ae:	00c50733          	add	a4,a0,a2
    56b2:	e781                	bnez	a5,56ba <memcpy+0x12>
    56b4:	478d                	li	a5,3
    56b6:	00c7ed63          	bltu	a5,a2,56d0 <memcpy+0x28>
    56ba:	87aa                	mv	a5,a0
    56bc:	08e57e63          	bgeu	a0,a4,5758 <memcpy+0xb0>
    56c0:	2194                	lbu	a3,0(a1)
    56c2:	0785                	addi	a5,a5,1
    56c4:	0585                	addi	a1,a1,1
    56c6:	fed78fa3          	sb	a3,-1(a5)
    56ca:	fee7ebe3          	bltu	a5,a4,56c0 <memcpy+0x18>
    56ce:	8082                	ret
    56d0:	00357693          	andi	a3,a0,3
    56d4:	87aa                	mv	a5,a0
    56d6:	ca89                	beqz	a3,56e8 <memcpy+0x40>
    56d8:	2194                	lbu	a3,0(a1)
    56da:	0785                	addi	a5,a5,1
    56dc:	0585                	addi	a1,a1,1
    56de:	fed78fa3          	sb	a3,-1(a5)
    56e2:	0037f693          	andi	a3,a5,3
    56e6:	bfc5                	j	56d6 <memcpy+0x2e>
    56e8:	ffc77693          	andi	a3,a4,-4
    56ec:	fe068613          	addi	a2,a3,-32
    56f0:	06c7f063          	bgeu	a5,a2,5750 <memcpy+0xa8>
    56f4:	0005a383          	lw	t2,0(a1) # 10000 <_data_lma+0x9c54>
    56f8:	0045a283          	lw	t0,4(a1)
    56fc:	0085af83          	lw	t6,8(a1)
    5700:	00c5af03          	lw	t5,12(a1)
    5704:	0105ae83          	lw	t4,16(a1)
    5708:	0145ae03          	lw	t3,20(a1)
    570c:	0185a303          	lw	t1,24(a1)
    5710:	01c5a883          	lw	a7,28(a1)
    5714:	02458593          	addi	a1,a1,36
    5718:	0077a023          	sw	t2,0(a5)
    571c:	ffc5a803          	lw	a6,-4(a1)
    5720:	0057a223          	sw	t0,4(a5)
    5724:	01f7a423          	sw	t6,8(a5)
    5728:	01e7a623          	sw	t5,12(a5)
    572c:	01d7a823          	sw	t4,16(a5)
    5730:	01c7aa23          	sw	t3,20(a5)
    5734:	0067ac23          	sw	t1,24(a5)
    5738:	0117ae23          	sw	a7,28(a5)
    573c:	02478793          	addi	a5,a5,36
    5740:	ff07ae23          	sw	a6,-4(a5)
    5744:	b775                	j	56f0 <memcpy+0x48>
    5746:	4190                	lw	a2,0(a1)
    5748:	0791                	addi	a5,a5,4
    574a:	0591                	addi	a1,a1,4
    574c:	fec7ae23          	sw	a2,-4(a5)
    5750:	fed7ebe3          	bltu	a5,a3,5746 <memcpy+0x9e>
    5754:	f6e7e6e3          	bltu	a5,a4,56c0 <memcpy+0x18>
    5758:	8082                	ret

0000575a <_free_r>:
    575a:	c1cd                	beqz	a1,57fc <_free_r+0xa2>
    575c:	ffc5a783          	lw	a5,-4(a1)
    5760:	1141                	addi	sp,sp,-16
    5762:	c422                	sw	s0,8(sp)
    5764:	c606                	sw	ra,12(sp)
    5766:	c226                	sw	s1,4(sp)
    5768:	ffc58413          	addi	s0,a1,-4
    576c:	0007d363          	bgez	a5,5772 <_free_r+0x18>
    5770:	943e                	add	s0,s0,a5
    5772:	84aa                	mv	s1,a0
    5774:	22f5                	jal	5960 <__malloc_lock>
    5776:	82418793          	addi	a5,gp,-2012 # 200001c4 <__malloc_free_list>
    577a:	439c                	lw	a5,0(a5)
    577c:	eb99                	bnez	a5,5792 <_free_r+0x38>
    577e:	00042223          	sw	zero,4(s0)
    5782:	8281a223          	sw	s0,-2012(gp) # 200001c4 <__malloc_free_list>
    5786:	4422                	lw	s0,8(sp)
    5788:	40b2                	lw	ra,12(sp)
    578a:	8526                	mv	a0,s1
    578c:	4492                	lw	s1,4(sp)
    578e:	0141                	addi	sp,sp,16
    5790:	aac9                	j	5962 <__malloc_unlock>
    5792:	00f47e63          	bgeu	s0,a5,57ae <_free_r+0x54>
    5796:	4014                	lw	a3,0(s0)
    5798:	00d40733          	add	a4,s0,a3
    579c:	00e79663          	bne	a5,a4,57a8 <_free_r+0x4e>
    57a0:	4398                	lw	a4,0(a5)
    57a2:	43dc                	lw	a5,4(a5)
    57a4:	9736                	add	a4,a4,a3
    57a6:	c018                	sw	a4,0(s0)
    57a8:	c05c                	sw	a5,4(s0)
    57aa:	bfe1                	j	5782 <_free_r+0x28>
    57ac:	87ba                	mv	a5,a4
    57ae:	43d8                	lw	a4,4(a5)
    57b0:	c319                	beqz	a4,57b6 <_free_r+0x5c>
    57b2:	fee47de3          	bgeu	s0,a4,57ac <_free_r+0x52>
    57b6:	4394                	lw	a3,0(a5)
    57b8:	00d78633          	add	a2,a5,a3
    57bc:	00861f63          	bne	a2,s0,57da <_free_r+0x80>
    57c0:	4010                	lw	a2,0(s0)
    57c2:	96b2                	add	a3,a3,a2
    57c4:	c394                	sw	a3,0(a5)
    57c6:	00d78633          	add	a2,a5,a3
    57ca:	fac71ee3          	bne	a4,a2,5786 <_free_r+0x2c>
    57ce:	4310                	lw	a2,0(a4)
    57d0:	4358                	lw	a4,4(a4)
    57d2:	96b2                	add	a3,a3,a2
    57d4:	c394                	sw	a3,0(a5)
    57d6:	c3d8                	sw	a4,4(a5)
    57d8:	b77d                	j	5786 <_free_r+0x2c>
    57da:	00c47563          	bgeu	s0,a2,57e4 <_free_r+0x8a>
    57de:	47b1                	li	a5,12
    57e0:	c09c                	sw	a5,0(s1)
    57e2:	b755                	j	5786 <_free_r+0x2c>
    57e4:	4010                	lw	a2,0(s0)
    57e6:	00c406b3          	add	a3,s0,a2
    57ea:	00d71663          	bne	a4,a3,57f6 <_free_r+0x9c>
    57ee:	4314                	lw	a3,0(a4)
    57f0:	4358                	lw	a4,4(a4)
    57f2:	96b2                	add	a3,a3,a2
    57f4:	c014                	sw	a3,0(s0)
    57f6:	c058                	sw	a4,4(s0)
    57f8:	c3c0                	sw	s0,4(a5)
    57fa:	b771                	j	5786 <_free_r+0x2c>
    57fc:	8082                	ret

000057fe <_malloc_r>:
    57fe:	1101                	addi	sp,sp,-32
    5800:	ca26                	sw	s1,20(sp)
    5802:	00358493          	addi	s1,a1,3
    5806:	98f1                	andi	s1,s1,-4
    5808:	ce06                	sw	ra,28(sp)
    580a:	cc22                	sw	s0,24(sp)
    580c:	c84a                	sw	s2,16(sp)
    580e:	c64e                	sw	s3,12(sp)
    5810:	04a1                	addi	s1,s1,8
    5812:	47b1                	li	a5,12
    5814:	04f4f163          	bgeu	s1,a5,5856 <_malloc_r+0x58>
    5818:	44b1                	li	s1,12
    581a:	04b4e063          	bltu	s1,a1,585a <_malloc_r+0x5c>
    581e:	892a                	mv	s2,a0
    5820:	2281                	jal	5960 <__malloc_lock>
    5822:	82418793          	addi	a5,gp,-2012 # 200001c4 <__malloc_free_list>
    5826:	4398                	lw	a4,0(a5)
    5828:	843a                	mv	s0,a4
    582a:	e031                	bnez	s0,586e <_malloc_r+0x70>
    582c:	82818793          	addi	a5,gp,-2008 # 200001c8 <__malloc_sbrk_start>
    5830:	439c                	lw	a5,0(a5)
    5832:	e791                	bnez	a5,583e <_malloc_r+0x40>
    5834:	4581                	li	a1,0
    5836:	854a                	mv	a0,s2
    5838:	2851                	jal	58cc <_sbrk_r>
    583a:	82a1a423          	sw	a0,-2008(gp) # 200001c8 <__malloc_sbrk_start>
    583e:	85a6                	mv	a1,s1
    5840:	854a                	mv	a0,s2
    5842:	2069                	jal	58cc <_sbrk_r>
    5844:	59fd                	li	s3,-1
    5846:	07351763          	bne	a0,s3,58b4 <_malloc_r+0xb6>
    584a:	47b1                	li	a5,12
    584c:	00f92023          	sw	a5,0(s2)
    5850:	854a                	mv	a0,s2
    5852:	2a01                	jal	5962 <__malloc_unlock>
    5854:	a029                	j	585e <_malloc_r+0x60>
    5856:	fc04d2e3          	bgez	s1,581a <_malloc_r+0x1c>
    585a:	47b1                	li	a5,12
    585c:	c11c                	sw	a5,0(a0)
    585e:	4501                	li	a0,0
    5860:	40f2                	lw	ra,28(sp)
    5862:	4462                	lw	s0,24(sp)
    5864:	44d2                	lw	s1,20(sp)
    5866:	4942                	lw	s2,16(sp)
    5868:	49b2                	lw	s3,12(sp)
    586a:	6105                	addi	sp,sp,32
    586c:	8082                	ret
    586e:	401c                	lw	a5,0(s0)
    5870:	8f85                	sub	a5,a5,s1
    5872:	0207ce63          	bltz	a5,58ae <_malloc_r+0xb0>
    5876:	46ad                	li	a3,11
    5878:	00f6f663          	bgeu	a3,a5,5884 <_malloc_r+0x86>
    587c:	c01c                	sw	a5,0(s0)
    587e:	943e                	add	s0,s0,a5
    5880:	c004                	sw	s1,0(s0)
    5882:	a031                	j	588e <_malloc_r+0x90>
    5884:	405c                	lw	a5,4(s0)
    5886:	02871263          	bne	a4,s0,58aa <_malloc_r+0xac>
    588a:	82f1a223          	sw	a5,-2012(gp) # 200001c4 <__malloc_free_list>
    588e:	854a                	mv	a0,s2
    5890:	28c9                	jal	5962 <__malloc_unlock>
    5892:	00b40513          	addi	a0,s0,11
    5896:	00440793          	addi	a5,s0,4
    589a:	9961                	andi	a0,a0,-8
    589c:	40f50733          	sub	a4,a0,a5
    58a0:	d361                	beqz	a4,5860 <_malloc_r+0x62>
    58a2:	943a                	add	s0,s0,a4
    58a4:	8f89                	sub	a5,a5,a0
    58a6:	c01c                	sw	a5,0(s0)
    58a8:	bf65                	j	5860 <_malloc_r+0x62>
    58aa:	c35c                	sw	a5,4(a4)
    58ac:	b7cd                	j	588e <_malloc_r+0x90>
    58ae:	8722                	mv	a4,s0
    58b0:	4040                	lw	s0,4(s0)
    58b2:	bfa5                	j	582a <_malloc_r+0x2c>
    58b4:	00350413          	addi	s0,a0,3
    58b8:	9871                	andi	s0,s0,-4
    58ba:	fc8503e3          	beq	a0,s0,5880 <_malloc_r+0x82>
    58be:	40a405b3          	sub	a1,s0,a0
    58c2:	854a                	mv	a0,s2
    58c4:	2021                	jal	58cc <_sbrk_r>
    58c6:	fb351de3          	bne	a0,s3,5880 <_malloc_r+0x82>
    58ca:	b741                	j	584a <_malloc_r+0x4c>

000058cc <_sbrk_r>:
    58cc:	1141                	addi	sp,sp,-16
    58ce:	c422                	sw	s0,8(sp)
    58d0:	842a                	mv	s0,a0
    58d2:	852e                	mv	a0,a1
    58d4:	8201a623          	sw	zero,-2004(gp) # 200001cc <errno>
    58d8:	c606                	sw	ra,12(sp)
    58da:	f4bfe0ef          	jal	ra,4824 <_sbrk>
    58de:	57fd                	li	a5,-1
    58e0:	00f51763          	bne	a0,a5,58ee <_sbrk_r+0x22>
    58e4:	82c18793          	addi	a5,gp,-2004 # 200001cc <errno>
    58e8:	439c                	lw	a5,0(a5)
    58ea:	c391                	beqz	a5,58ee <_sbrk_r+0x22>
    58ec:	c01c                	sw	a5,0(s0)
    58ee:	40b2                	lw	ra,12(sp)
    58f0:	4422                	lw	s0,8(sp)
    58f2:	0141                	addi	sp,sp,16
    58f4:	8082                	ret

000058f6 <_vsniprintf_r>:
    58f6:	7119                	addi	sp,sp,-128
    58f8:	dca2                	sw	s0,120(sp)
    58fa:	de86                	sw	ra,124(sp)
    58fc:	daa6                	sw	s1,116(sp)
    58fe:	8432                	mv	s0,a2
    5900:	00065b63          	bgez	a2,5916 <_vsniprintf_r+0x20>
    5904:	08b00793          	li	a5,139
    5908:	c11c                	sw	a5,0(a0)
    590a:	557d                	li	a0,-1
    590c:	50f6                	lw	ra,124(sp)
    590e:	5466                	lw	s0,120(sp)
    5910:	54d6                	lw	s1,116(sp)
    5912:	6109                	addi	sp,sp,128
    5914:	8082                	ret
    5916:	8636                	mv	a2,a3
    5918:	20800693          	li	a3,520
    591c:	c42e                	sw	a1,8(sp)
    591e:	cc2e                	sw	a1,24(sp)
    5920:	82f4                	sh	a3,20(sp)
    5922:	4581                	li	a1,0
    5924:	c019                	beqz	s0,592a <_vsniprintf_r+0x34>
    5926:	fff40593          	addi	a1,s0,-1
    592a:	57fd                	li	a5,-1
    592c:	c82e                	sw	a1,16(sp)
    592e:	ce2e                	sw	a1,28(sp)
    5930:	86ba                	mv	a3,a4
    5932:	002c                	addi	a1,sp,8
    5934:	83fc                	sh	a5,22(sp)
    5936:	84aa                	mv	s1,a0
    5938:	2229                	jal	5a42 <_svfiprintf_r>
    593a:	57fd                	li	a5,-1
    593c:	00f55563          	bge	a0,a5,5946 <_vsniprintf_r+0x50>
    5940:	08b00793          	li	a5,139
    5944:	c09c                	sw	a5,0(s1)
    5946:	d079                	beqz	s0,590c <_vsniprintf_r+0x16>
    5948:	47a2                	lw	a5,8(sp)
    594a:	00078023          	sb	zero,0(a5)
    594e:	bf7d                	j	590c <_vsniprintf_r+0x16>

00005950 <vsniprintf>:
    5950:	80c18793          	addi	a5,gp,-2036 # 200001ac <_impure_ptr>
    5954:	8736                	mv	a4,a3
    5956:	86b2                	mv	a3,a2
    5958:	862e                	mv	a2,a1
    595a:	85aa                	mv	a1,a0
    595c:	4388                	lw	a0,0(a5)
    595e:	bf61                	j	58f6 <_vsniprintf_r>

00005960 <__malloc_lock>:
    5960:	8082                	ret

00005962 <__malloc_unlock>:
    5962:	8082                	ret

00005964 <__ssputs_r>:
    5964:	1101                	addi	sp,sp,-32
    5966:	c84a                	sw	s2,16(sp)
    5968:	0085a903          	lw	s2,8(a1)
    596c:	cc22                	sw	s0,24(sp)
    596e:	c452                	sw	s4,8(sp)
    5970:	c05a                	sw	s6,0(sp)
    5972:	ce06                	sw	ra,28(sp)
    5974:	ca26                	sw	s1,20(sp)
    5976:	c64e                	sw	s3,12(sp)
    5978:	c256                	sw	s5,4(sp)
    597a:	842e                	mv	s0,a1
    597c:	8b32                	mv	s6,a2
    597e:	8a36                	mv	s4,a3
    5980:	0926e863          	bltu	a3,s2,5a10 <__ssputs_r+0xac>
    5984:	25de                	lhu	a5,12(a1)
    5986:	4807f713          	andi	a4,a5,1152
    598a:	c349                	beqz	a4,5a0c <__ssputs_r+0xa8>
    598c:	4004                	lw	s1,0(s0)
    598e:	498c                	lw	a1,16(a1)
    5990:	4858                	lw	a4,20(s0)
    5992:	8aaa                	mv	s5,a0
    5994:	40b489b3          	sub	s3,s1,a1
    5998:	448d                	li	s1,3
    599a:	02e484b3          	mul	s1,s1,a4
    599e:	4709                	li	a4,2
    59a0:	02e4c4b3          	div	s1,s1,a4
    59a4:	00168713          	addi	a4,a3,1
    59a8:	974e                	add	a4,a4,s3
    59aa:	00e4f363          	bgeu	s1,a4,59b0 <__ssputs_r+0x4c>
    59ae:	84ba                	mv	s1,a4
    59b0:	4007f793          	andi	a5,a5,1024
    59b4:	cfad                	beqz	a5,5a2e <__ssputs_r+0xca>
    59b6:	85a6                	mv	a1,s1
    59b8:	8556                	mv	a0,s5
    59ba:	3591                	jal	57fe <_malloc_r>
    59bc:	892a                	mv	s2,a0
    59be:	e11d                	bnez	a0,59e4 <__ssputs_r+0x80>
    59c0:	47b1                	li	a5,12
    59c2:	00faa023          	sw	a5,0(s5)
    59c6:	245e                	lhu	a5,12(s0)
    59c8:	557d                	li	a0,-1
    59ca:	0407e793          	ori	a5,a5,64
    59ce:	a45e                	sh	a5,12(s0)
    59d0:	40f2                	lw	ra,28(sp)
    59d2:	4462                	lw	s0,24(sp)
    59d4:	44d2                	lw	s1,20(sp)
    59d6:	4942                	lw	s2,16(sp)
    59d8:	49b2                	lw	s3,12(sp)
    59da:	4a22                	lw	s4,8(sp)
    59dc:	4a92                	lw	s5,4(sp)
    59de:	4b02                	lw	s6,0(sp)
    59e0:	6105                	addi	sp,sp,32
    59e2:	8082                	ret
    59e4:	480c                	lw	a1,16(s0)
    59e6:	864e                	mv	a2,s3
    59e8:	cc1ff0ef          	jal	ra,56a8 <memcpy>
    59ec:	245e                	lhu	a5,12(s0)
    59ee:	b7f7f793          	andi	a5,a5,-1153
    59f2:	0807e793          	ori	a5,a5,128
    59f6:	a45e                	sh	a5,12(s0)
    59f8:	01242823          	sw	s2,16(s0)
    59fc:	c844                	sw	s1,20(s0)
    59fe:	994e                	add	s2,s2,s3
    5a00:	413484b3          	sub	s1,s1,s3
    5a04:	01242023          	sw	s2,0(s0)
    5a08:	c404                	sw	s1,8(s0)
    5a0a:	8952                	mv	s2,s4
    5a0c:	012a7363          	bgeu	s4,s2,5a12 <__ssputs_r+0xae>
    5a10:	8952                	mv	s2,s4
    5a12:	4008                	lw	a0,0(s0)
    5a14:	864a                	mv	a2,s2
    5a16:	85da                	mv	a1,s6
    5a18:	2d89                	jal	606a <memmove>
    5a1a:	441c                	lw	a5,8(s0)
    5a1c:	4501                	li	a0,0
    5a1e:	412787b3          	sub	a5,a5,s2
    5a22:	c41c                	sw	a5,8(s0)
    5a24:	401c                	lw	a5,0(s0)
    5a26:	993e                	add	s2,s2,a5
    5a28:	01242023          	sw	s2,0(s0)
    5a2c:	b755                	j	59d0 <__ssputs_r+0x6c>
    5a2e:	8626                	mv	a2,s1
    5a30:	8556                	mv	a0,s5
    5a32:	2dbd                	jal	60b0 <_realloc_r>
    5a34:	892a                	mv	s2,a0
    5a36:	f169                	bnez	a0,59f8 <__ssputs_r+0x94>
    5a38:	480c                	lw	a1,16(s0)
    5a3a:	8556                	mv	a0,s5
    5a3c:	d1fff0ef          	jal	ra,575a <_free_r>
    5a40:	b741                	j	59c0 <__ssputs_r+0x5c>

00005a42 <_svfiprintf_r>:
    5a42:	25de                	lhu	a5,12(a1)
    5a44:	7171                	addi	sp,sp,-176
    5a46:	d326                	sw	s1,164(sp)
    5a48:	d14a                	sw	s2,160(sp)
    5a4a:	cf4e                	sw	s3,156(sp)
    5a4c:	d706                	sw	ra,172(sp)
    5a4e:	d522                	sw	s0,168(sp)
    5a50:	cd52                	sw	s4,152(sp)
    5a52:	cb56                	sw	s5,148(sp)
    5a54:	c95a                	sw	s6,144(sp)
    5a56:	c75e                	sw	s7,140(sp)
    5a58:	c562                	sw	s8,136(sp)
    5a5a:	c366                	sw	s9,132(sp)
    5a5c:	0807f793          	andi	a5,a5,128
    5a60:	89aa                	mv	s3,a0
    5a62:	892e                	mv	s2,a1
    5a64:	84b2                	mv	s1,a2
    5a66:	c3b9                	beqz	a5,5aac <_svfiprintf_r+0x6a>
    5a68:	499c                	lw	a5,16(a1)
    5a6a:	e3a9                	bnez	a5,5aac <_svfiprintf_r+0x6a>
    5a6c:	04000593          	li	a1,64
    5a70:	c636                	sw	a3,12(sp)
    5a72:	d8dff0ef          	jal	ra,57fe <_malloc_r>
    5a76:	00a92023          	sw	a0,0(s2)
    5a7a:	00a92823          	sw	a0,16(s2)
    5a7e:	46b2                	lw	a3,12(sp)
    5a80:	e115                	bnez	a0,5aa4 <_svfiprintf_r+0x62>
    5a82:	47b1                	li	a5,12
    5a84:	00f9a023          	sw	a5,0(s3)
    5a88:	557d                	li	a0,-1
    5a8a:	50ba                	lw	ra,172(sp)
    5a8c:	542a                	lw	s0,168(sp)
    5a8e:	549a                	lw	s1,164(sp)
    5a90:	590a                	lw	s2,160(sp)
    5a92:	49fa                	lw	s3,156(sp)
    5a94:	4a6a                	lw	s4,152(sp)
    5a96:	4ada                	lw	s5,148(sp)
    5a98:	4b4a                	lw	s6,144(sp)
    5a9a:	4bba                	lw	s7,140(sp)
    5a9c:	4c2a                	lw	s8,136(sp)
    5a9e:	4c9a                	lw	s9,132(sp)
    5aa0:	614d                	addi	sp,sp,176
    5aa2:	8082                	ret
    5aa4:	04000793          	li	a5,64
    5aa8:	00f92a23          	sw	a5,20(s2)
    5aac:	02000793          	li	a5,32
    5ab0:	02f10ca3          	sb	a5,57(sp)
    5ab4:	03000793          	li	a5,48
    5ab8:	da02                	sw	zero,52(sp)
    5aba:	02f10d23          	sb	a5,58(sp)
    5abe:	ce36                	sw	a3,28(sp)
    5ac0:	02500b93          	li	s7,37
    5ac4:	00001a97          	auipc	s5,0x1
    5ac8:	8aca8a93          	addi	s5,s5,-1876 # 6370 <__clz_tab+0x100>
    5acc:	4c05                	li	s8,1
    5ace:	4b29                	li	s6,10
    5ad0:	8426                	mv	s0,s1
    5ad2:	201c                	lbu	a5,0(s0)
    5ad4:	c399                	beqz	a5,5ada <_svfiprintf_r+0x98>
    5ad6:	09779763          	bne	a5,s7,5b64 <_svfiprintf_r+0x122>
    5ada:	40940cb3          	sub	s9,s0,s1
    5ade:	000c8d63          	beqz	s9,5af8 <_svfiprintf_r+0xb6>
    5ae2:	86e6                	mv	a3,s9
    5ae4:	8626                	mv	a2,s1
    5ae6:	85ca                	mv	a1,s2
    5ae8:	854e                	mv	a0,s3
    5aea:	3dad                	jal	5964 <__ssputs_r>
    5aec:	57fd                	li	a5,-1
    5aee:	18f50863          	beq	a0,a5,5c7e <_svfiprintf_r+0x23c>
    5af2:	56d2                	lw	a3,52(sp)
    5af4:	96e6                	add	a3,a3,s9
    5af6:	da36                	sw	a3,52(sp)
    5af8:	201c                	lbu	a5,0(s0)
    5afa:	18078263          	beqz	a5,5c7e <_svfiprintf_r+0x23c>
    5afe:	57fd                	li	a5,-1
    5b00:	00140493          	addi	s1,s0,1
    5b04:	d002                	sw	zero,32(sp)
    5b06:	d602                	sw	zero,44(sp)
    5b08:	d23e                	sw	a5,36(sp)
    5b0a:	d402                	sw	zero,40(sp)
    5b0c:	060101a3          	sb	zero,99(sp)
    5b10:	dc82                	sw	zero,120(sp)
    5b12:	208c                	lbu	a1,0(s1)
    5b14:	4615                	li	a2,5
    5b16:	8556                	mv	a0,s5
    5b18:	2b2d                	jal	6052 <memchr>
    5b1a:	00148413          	addi	s0,s1,1
    5b1e:	5782                	lw	a5,32(sp)
    5b20:	e521                	bnez	a0,5b68 <_svfiprintf_r+0x126>
    5b22:	0107f713          	andi	a4,a5,16
    5b26:	c709                	beqz	a4,5b30 <_svfiprintf_r+0xee>
    5b28:	02000713          	li	a4,32
    5b2c:	06e101a3          	sb	a4,99(sp)
    5b30:	0087f713          	andi	a4,a5,8
    5b34:	c709                	beqz	a4,5b3e <_svfiprintf_r+0xfc>
    5b36:	02b00713          	li	a4,43
    5b3a:	06e101a3          	sb	a4,99(sp)
    5b3e:	2094                	lbu	a3,0(s1)
    5b40:	02a00713          	li	a4,42
    5b44:	02e68a63          	beq	a3,a4,5b78 <_svfiprintf_r+0x136>
    5b48:	57b2                	lw	a5,44(sp)
    5b4a:	8426                	mv	s0,s1
    5b4c:	4681                	li	a3,0
    5b4e:	4625                	li	a2,9
    5b50:	2018                	lbu	a4,0(s0)
    5b52:	00140593          	addi	a1,s0,1
    5b56:	fd070713          	addi	a4,a4,-48
    5b5a:	06e67263          	bgeu	a2,a4,5bbe <_svfiprintf_r+0x17c>
    5b5e:	c68d                	beqz	a3,5b88 <_svfiprintf_r+0x146>
    5b60:	d63e                	sw	a5,44(sp)
    5b62:	a01d                	j	5b88 <_svfiprintf_r+0x146>
    5b64:	0405                	addi	s0,s0,1
    5b66:	b7b5                	j	5ad2 <_svfiprintf_r+0x90>
    5b68:	41550533          	sub	a0,a0,s5
    5b6c:	00ac1533          	sll	a0,s8,a0
    5b70:	8fc9                	or	a5,a5,a0
    5b72:	d03e                	sw	a5,32(sp)
    5b74:	84a2                	mv	s1,s0
    5b76:	bf71                	j	5b12 <_svfiprintf_r+0xd0>
    5b78:	4772                	lw	a4,28(sp)
    5b7a:	00470693          	addi	a3,a4,4
    5b7e:	4318                	lw	a4,0(a4)
    5b80:	ce36                	sw	a3,28(sp)
    5b82:	02074763          	bltz	a4,5bb0 <_svfiprintf_r+0x16e>
    5b86:	d63a                	sw	a4,44(sp)
    5b88:	2018                	lbu	a4,0(s0)
    5b8a:	02e00793          	li	a5,46
    5b8e:	04f71d63          	bne	a4,a5,5be8 <_svfiprintf_r+0x1a6>
    5b92:	3018                	lbu	a4,1(s0)
    5b94:	02a00793          	li	a5,42
    5b98:	02f71b63          	bne	a4,a5,5bce <_svfiprintf_r+0x18c>
    5b9c:	47f2                	lw	a5,28(sp)
    5b9e:	0409                	addi	s0,s0,2
    5ba0:	00478713          	addi	a4,a5,4
    5ba4:	439c                	lw	a5,0(a5)
    5ba6:	ce3a                	sw	a4,28(sp)
    5ba8:	0207c163          	bltz	a5,5bca <_svfiprintf_r+0x188>
    5bac:	d23e                	sw	a5,36(sp)
    5bae:	a82d                	j	5be8 <_svfiprintf_r+0x1a6>
    5bb0:	40e00733          	neg	a4,a4
    5bb4:	0027e793          	ori	a5,a5,2
    5bb8:	d63a                	sw	a4,44(sp)
    5bba:	d03e                	sw	a5,32(sp)
    5bbc:	b7f1                	j	5b88 <_svfiprintf_r+0x146>
    5bbe:	036787b3          	mul	a5,a5,s6
    5bc2:	4685                	li	a3,1
    5bc4:	842e                	mv	s0,a1
    5bc6:	97ba                	add	a5,a5,a4
    5bc8:	b761                	j	5b50 <_svfiprintf_r+0x10e>
    5bca:	57fd                	li	a5,-1
    5bcc:	b7c5                	j	5bac <_svfiprintf_r+0x16a>
    5bce:	0405                	addi	s0,s0,1
    5bd0:	d202                	sw	zero,36(sp)
    5bd2:	4681                	li	a3,0
    5bd4:	4781                	li	a5,0
    5bd6:	4625                	li	a2,9
    5bd8:	2018                	lbu	a4,0(s0)
    5bda:	00140593          	addi	a1,s0,1
    5bde:	fd070713          	addi	a4,a4,-48
    5be2:	06e67463          	bgeu	a2,a4,5c4a <_svfiprintf_r+0x208>
    5be6:	f2f9                	bnez	a3,5bac <_svfiprintf_r+0x16a>
    5be8:	200c                	lbu	a1,0(s0)
    5bea:	460d                	li	a2,3
    5bec:	00000517          	auipc	a0,0x0
    5bf0:	78c50513          	addi	a0,a0,1932 # 6378 <__clz_tab+0x108>
    5bf4:	29b9                	jal	6052 <memchr>
    5bf6:	cd11                	beqz	a0,5c12 <_svfiprintf_r+0x1d0>
    5bf8:	00000797          	auipc	a5,0x0
    5bfc:	78078793          	addi	a5,a5,1920 # 6378 <__clz_tab+0x108>
    5c00:	8d1d                	sub	a0,a0,a5
    5c02:	04000793          	li	a5,64
    5c06:	00a797b3          	sll	a5,a5,a0
    5c0a:	5502                	lw	a0,32(sp)
    5c0c:	0405                	addi	s0,s0,1
    5c0e:	8d5d                	or	a0,a0,a5
    5c10:	d02a                	sw	a0,32(sp)
    5c12:	200c                	lbu	a1,0(s0)
    5c14:	4619                	li	a2,6
    5c16:	00000517          	auipc	a0,0x0
    5c1a:	76650513          	addi	a0,a0,1894 # 637c <__clz_tab+0x10c>
    5c1e:	00140493          	addi	s1,s0,1
    5c22:	02b10c23          	sb	a1,56(sp)
    5c26:	2135                	jal	6052 <memchr>
    5c28:	c525                	beqz	a0,5c90 <_svfiprintf_r+0x24e>
    5c2a:	ffffa797          	auipc	a5,0xffffa
    5c2e:	3d678793          	addi	a5,a5,982 # 0 <_sinit>
    5c32:	e795                	bnez	a5,5c5e <_svfiprintf_r+0x21c>
    5c34:	5702                	lw	a4,32(sp)
    5c36:	47f2                	lw	a5,28(sp)
    5c38:	10077713          	andi	a4,a4,256
    5c3c:	cf09                	beqz	a4,5c56 <_svfiprintf_r+0x214>
    5c3e:	0791                	addi	a5,a5,4
    5c40:	ce3e                	sw	a5,28(sp)
    5c42:	57d2                	lw	a5,52(sp)
    5c44:	97d2                	add	a5,a5,s4
    5c46:	da3e                	sw	a5,52(sp)
    5c48:	b561                	j	5ad0 <_svfiprintf_r+0x8e>
    5c4a:	036787b3          	mul	a5,a5,s6
    5c4e:	4685                	li	a3,1
    5c50:	842e                	mv	s0,a1
    5c52:	97ba                	add	a5,a5,a4
    5c54:	b751                	j	5bd8 <_svfiprintf_r+0x196>
    5c56:	079d                	addi	a5,a5,7
    5c58:	9be1                	andi	a5,a5,-8
    5c5a:	07a1                	addi	a5,a5,8
    5c5c:	b7d5                	j	5c40 <_svfiprintf_r+0x1fe>
    5c5e:	0878                	addi	a4,sp,28
    5c60:	00000697          	auipc	a3,0x0
    5c64:	d0468693          	addi	a3,a3,-764 # 5964 <__ssputs_r>
    5c68:	864a                	mv	a2,s2
    5c6a:	100c                	addi	a1,sp,32
    5c6c:	854e                	mv	a0,s3
    5c6e:	00000097          	auipc	ra,0x0
    5c72:	000000e7          	jalr	zero # 0 <_sinit>
    5c76:	57fd                	li	a5,-1
    5c78:	8a2a                	mv	s4,a0
    5c7a:	fcf514e3          	bne	a0,a5,5c42 <_svfiprintf_r+0x200>
    5c7e:	00c95783          	lhu	a5,12(s2)
    5c82:	557d                	li	a0,-1
    5c84:	0407f793          	andi	a5,a5,64
    5c88:	e00791e3          	bnez	a5,5a8a <_svfiprintf_r+0x48>
    5c8c:	5552                	lw	a0,52(sp)
    5c8e:	bbf5                	j	5a8a <_svfiprintf_r+0x48>
    5c90:	0878                	addi	a4,sp,28
    5c92:	00000697          	auipc	a3,0x0
    5c96:	cd268693          	addi	a3,a3,-814 # 5964 <__ssputs_r>
    5c9a:	864a                	mv	a2,s2
    5c9c:	100c                	addi	a1,sp,32
    5c9e:	854e                	mv	a0,s3
    5ca0:	2a01                	jal	5db0 <_printf_i>
    5ca2:	bfd1                	j	5c76 <_svfiprintf_r+0x234>

00005ca4 <_printf_common>:
    5ca4:	7179                	addi	sp,sp,-48
    5ca6:	ca56                	sw	s5,20(sp)
    5ca8:	499c                	lw	a5,16(a1)
    5caa:	8aba                	mv	s5,a4
    5cac:	4598                	lw	a4,8(a1)
    5cae:	d422                	sw	s0,40(sp)
    5cb0:	d226                	sw	s1,36(sp)
    5cb2:	ce4e                	sw	s3,28(sp)
    5cb4:	cc52                	sw	s4,24(sp)
    5cb6:	d606                	sw	ra,44(sp)
    5cb8:	d04a                	sw	s2,32(sp)
    5cba:	c85a                	sw	s6,16(sp)
    5cbc:	c65e                	sw	s7,12(sp)
    5cbe:	89aa                	mv	s3,a0
    5cc0:	842e                	mv	s0,a1
    5cc2:	84b2                	mv	s1,a2
    5cc4:	8a36                	mv	s4,a3
    5cc6:	00e7d363          	bge	a5,a4,5ccc <_printf_common+0x28>
    5cca:	87ba                	mv	a5,a4
    5ccc:	c09c                	sw	a5,0(s1)
    5cce:	04344703          	lbu	a4,67(s0)
    5cd2:	c319                	beqz	a4,5cd8 <_printf_common+0x34>
    5cd4:	0785                	addi	a5,a5,1
    5cd6:	c09c                	sw	a5,0(s1)
    5cd8:	401c                	lw	a5,0(s0)
    5cda:	0207f793          	andi	a5,a5,32
    5cde:	c781                	beqz	a5,5ce6 <_printf_common+0x42>
    5ce0:	409c                	lw	a5,0(s1)
    5ce2:	0789                	addi	a5,a5,2
    5ce4:	c09c                	sw	a5,0(s1)
    5ce6:	00042903          	lw	s2,0(s0)
    5cea:	00697913          	andi	s2,s2,6
    5cee:	00091a63          	bnez	s2,5d02 <_printf_common+0x5e>
    5cf2:	01940b13          	addi	s6,s0,25
    5cf6:	5bfd                	li	s7,-1
    5cf8:	445c                	lw	a5,12(s0)
    5cfa:	4098                	lw	a4,0(s1)
    5cfc:	8f99                	sub	a5,a5,a4
    5cfe:	04f94c63          	blt	s2,a5,5d56 <_printf_common+0xb2>
    5d02:	401c                	lw	a5,0(s0)
    5d04:	04344683          	lbu	a3,67(s0)
    5d08:	0207f793          	andi	a5,a5,32
    5d0c:	00d036b3          	snez	a3,a3
    5d10:	eba5                	bnez	a5,5d80 <_printf_common+0xdc>
    5d12:	04340613          	addi	a2,s0,67
    5d16:	85d2                	mv	a1,s4
    5d18:	854e                	mv	a0,s3
    5d1a:	9a82                	jalr	s5
    5d1c:	57fd                	li	a5,-1
    5d1e:	04f50363          	beq	a0,a5,5d64 <_printf_common+0xc0>
    5d22:	401c                	lw	a5,0(s0)
    5d24:	4611                	li	a2,4
    5d26:	4098                	lw	a4,0(s1)
    5d28:	8b99                	andi	a5,a5,6
    5d2a:	4454                	lw	a3,12(s0)
    5d2c:	4481                	li	s1,0
    5d2e:	00c79763          	bne	a5,a2,5d3c <_printf_common+0x98>
    5d32:	40e684b3          	sub	s1,a3,a4
    5d36:	0004d363          	bgez	s1,5d3c <_printf_common+0x98>
    5d3a:	4481                	li	s1,0
    5d3c:	441c                	lw	a5,8(s0)
    5d3e:	4818                	lw	a4,16(s0)
    5d40:	00f75463          	bge	a4,a5,5d48 <_printf_common+0xa4>
    5d44:	8f99                	sub	a5,a5,a4
    5d46:	94be                	add	s1,s1,a5
    5d48:	4901                	li	s2,0
    5d4a:	0469                	addi	s0,s0,26
    5d4c:	5b7d                	li	s6,-1
    5d4e:	05249863          	bne	s1,s2,5d9e <_printf_common+0xfa>
    5d52:	4501                	li	a0,0
    5d54:	a809                	j	5d66 <_printf_common+0xc2>
    5d56:	4685                	li	a3,1
    5d58:	865a                	mv	a2,s6
    5d5a:	85d2                	mv	a1,s4
    5d5c:	854e                	mv	a0,s3
    5d5e:	9a82                	jalr	s5
    5d60:	01751e63          	bne	a0,s7,5d7c <_printf_common+0xd8>
    5d64:	557d                	li	a0,-1
    5d66:	50b2                	lw	ra,44(sp)
    5d68:	5422                	lw	s0,40(sp)
    5d6a:	5492                	lw	s1,36(sp)
    5d6c:	5902                	lw	s2,32(sp)
    5d6e:	49f2                	lw	s3,28(sp)
    5d70:	4a62                	lw	s4,24(sp)
    5d72:	4ad2                	lw	s5,20(sp)
    5d74:	4b42                	lw	s6,16(sp)
    5d76:	4bb2                	lw	s7,12(sp)
    5d78:	6145                	addi	sp,sp,48
    5d7a:	8082                	ret
    5d7c:	0905                	addi	s2,s2,1
    5d7e:	bfad                	j	5cf8 <_printf_common+0x54>
    5d80:	00d40733          	add	a4,s0,a3
    5d84:	03000613          	li	a2,48
    5d88:	04c701a3          	sb	a2,67(a4)
    5d8c:	04544703          	lbu	a4,69(s0)
    5d90:	00168793          	addi	a5,a3,1
    5d94:	97a2                	add	a5,a5,s0
    5d96:	0689                	addi	a3,a3,2
    5d98:	04e781a3          	sb	a4,67(a5)
    5d9c:	bf9d                	j	5d12 <_printf_common+0x6e>
    5d9e:	4685                	li	a3,1
    5da0:	8622                	mv	a2,s0
    5da2:	85d2                	mv	a1,s4
    5da4:	854e                	mv	a0,s3
    5da6:	9a82                	jalr	s5
    5da8:	fb650ee3          	beq	a0,s6,5d64 <_printf_common+0xc0>
    5dac:	0905                	addi	s2,s2,1
    5dae:	b745                	j	5d4e <_printf_common+0xaa>

00005db0 <_printf_i>:
    5db0:	7179                	addi	sp,sp,-48
    5db2:	d422                	sw	s0,40(sp)
    5db4:	d226                	sw	s1,36(sp)
    5db6:	d04a                	sw	s2,32(sp)
    5db8:	ce4e                	sw	s3,28(sp)
    5dba:	d606                	sw	ra,44(sp)
    5dbc:	cc52                	sw	s4,24(sp)
    5dbe:	ca56                	sw	s5,20(sp)
    5dc0:	c85a                	sw	s6,16(sp)
    5dc2:	89b6                	mv	s3,a3
    5dc4:	2d94                	lbu	a3,24(a1)
    5dc6:	06900793          	li	a5,105
    5dca:	8932                	mv	s2,a2
    5dcc:	84aa                	mv	s1,a0
    5dce:	842e                	mv	s0,a1
    5dd0:	04358613          	addi	a2,a1,67
    5dd4:	02f68d63          	beq	a3,a5,5e0e <_printf_i+0x5e>
    5dd8:	06d7e263          	bltu	a5,a3,5e3c <_printf_i+0x8c>
    5ddc:	05800793          	li	a5,88
    5de0:	18f68663          	beq	a3,a5,5f6c <_printf_i+0x1bc>
    5de4:	00d7ed63          	bltu	a5,a3,5dfe <_printf_i+0x4e>
    5de8:	20068e63          	beqz	a3,6004 <_printf_i+0x254>
    5dec:	04300793          	li	a5,67
    5df0:	0af68e63          	beq	a3,a5,5eac <_printf_i+0xfc>
    5df4:	04240a93          	addi	s5,s0,66
    5df8:	04d40123          	sb	a3,66(s0)
    5dfc:	a0c9                	j	5ebe <_printf_i+0x10e>
    5dfe:	06300793          	li	a5,99
    5e02:	0af68563          	beq	a3,a5,5eac <_printf_i+0xfc>
    5e06:	06400793          	li	a5,100
    5e0a:	fef695e3          	bne	a3,a5,5df4 <_printf_i+0x44>
    5e0e:	401c                	lw	a5,0(s0)
    5e10:	4308                	lw	a0,0(a4)
    5e12:	0807f693          	andi	a3,a5,128
    5e16:	00450593          	addi	a1,a0,4
    5e1a:	c6c5                	beqz	a3,5ec2 <_printf_i+0x112>
    5e1c:	411c                	lw	a5,0(a0)
    5e1e:	c30c                	sw	a1,0(a4)
    5e20:	0007d863          	bgez	a5,5e30 <_printf_i+0x80>
    5e24:	02d00713          	li	a4,45
    5e28:	40f007b3          	neg	a5,a5
    5e2c:	04e401a3          	sb	a4,67(s0)
    5e30:	00000697          	auipc	a3,0x0
    5e34:	55468693          	addi	a3,a3,1364 # 6384 <__clz_tab+0x114>
    5e38:	4729                	li	a4,10
    5e3a:	a865                	j	5ef2 <_printf_i+0x142>
    5e3c:	07000793          	li	a5,112
    5e40:	16f68263          	beq	a3,a5,5fa4 <_printf_i+0x1f4>
    5e44:	02d7e563          	bltu	a5,a3,5e6e <_printf_i+0xbe>
    5e48:	06e00793          	li	a5,110
    5e4c:	18f68963          	beq	a3,a5,5fde <_printf_i+0x22e>
    5e50:	06f00793          	li	a5,111
    5e54:	faf690e3          	bne	a3,a5,5df4 <_printf_i+0x44>
    5e58:	400c                	lw	a1,0(s0)
    5e5a:	431c                	lw	a5,0(a4)
    5e5c:	0805f813          	andi	a6,a1,128
    5e60:	00478513          	addi	a0,a5,4
    5e64:	06080763          	beqz	a6,5ed2 <_printf_i+0x122>
    5e68:	c308                	sw	a0,0(a4)
    5e6a:	439c                	lw	a5,0(a5)
    5e6c:	a885                	j	5edc <_printf_i+0x12c>
    5e6e:	07500793          	li	a5,117
    5e72:	fef683e3          	beq	a3,a5,5e58 <_printf_i+0xa8>
    5e76:	07800793          	li	a5,120
    5e7a:	12f68963          	beq	a3,a5,5fac <_printf_i+0x1fc>
    5e7e:	07300793          	li	a5,115
    5e82:	f6f699e3          	bne	a3,a5,5df4 <_printf_i+0x44>
    5e86:	431c                	lw	a5,0(a4)
    5e88:	41d0                	lw	a2,4(a1)
    5e8a:	4581                	li	a1,0
    5e8c:	00478693          	addi	a3,a5,4
    5e90:	c314                	sw	a3,0(a4)
    5e92:	0007aa83          	lw	s5,0(a5)
    5e96:	8556                	mv	a0,s5
    5e98:	2a6d                	jal	6052 <memchr>
    5e9a:	c501                	beqz	a0,5ea2 <_printf_i+0xf2>
    5e9c:	41550533          	sub	a0,a0,s5
    5ea0:	c048                	sw	a0,4(s0)
    5ea2:	405c                	lw	a5,4(s0)
    5ea4:	c81c                	sw	a5,16(s0)
    5ea6:	040401a3          	sb	zero,67(s0)
    5eaa:	a861                	j	5f42 <_printf_i+0x192>
    5eac:	431c                	lw	a5,0(a4)
    5eae:	04240a93          	addi	s5,s0,66
    5eb2:	00478693          	addi	a3,a5,4
    5eb6:	439c                	lw	a5,0(a5)
    5eb8:	c314                	sw	a3,0(a4)
    5eba:	04f40123          	sb	a5,66(s0)
    5ebe:	4785                	li	a5,1
    5ec0:	b7d5                	j	5ea4 <_printf_i+0xf4>
    5ec2:	0407f693          	andi	a3,a5,64
    5ec6:	411c                	lw	a5,0(a0)
    5ec8:	c30c                	sw	a1,0(a4)
    5eca:	dab9                	beqz	a3,5e20 <_printf_i+0x70>
    5ecc:	07c2                	slli	a5,a5,0x10
    5ece:	87c1                	srai	a5,a5,0x10
    5ed0:	bf81                	j	5e20 <_printf_i+0x70>
    5ed2:	0405f593          	andi	a1,a1,64
    5ed6:	c308                	sw	a0,0(a4)
    5ed8:	d9c9                	beqz	a1,5e6a <_printf_i+0xba>
    5eda:	239e                	lhu	a5,0(a5)
    5edc:	06f00713          	li	a4,111
    5ee0:	0ee68763          	beq	a3,a4,5fce <_printf_i+0x21e>
    5ee4:	00000697          	auipc	a3,0x0
    5ee8:	4a068693          	addi	a3,a3,1184 # 6384 <__clz_tab+0x114>
    5eec:	4729                	li	a4,10
    5eee:	040401a3          	sb	zero,67(s0)
    5ef2:	404c                	lw	a1,4(s0)
    5ef4:	c40c                	sw	a1,8(s0)
    5ef6:	0005c563          	bltz	a1,5f00 <_printf_i+0x150>
    5efa:	4008                	lw	a0,0(s0)
    5efc:	996d                	andi	a0,a0,-5
    5efe:	c008                	sw	a0,0(s0)
    5f00:	e399                	bnez	a5,5f06 <_printf_i+0x156>
    5f02:	8ab2                	mv	s5,a2
    5f04:	cd89                	beqz	a1,5f1e <_printf_i+0x16e>
    5f06:	8ab2                	mv	s5,a2
    5f08:	02e7f5b3          	remu	a1,a5,a4
    5f0c:	1afd                	addi	s5,s5,-1
    5f0e:	95b6                	add	a1,a1,a3
    5f10:	218c                	lbu	a1,0(a1)
    5f12:	00ba8023          	sb	a1,0(s5)
    5f16:	02e7d5b3          	divu	a1,a5,a4
    5f1a:	0ce7f063          	bgeu	a5,a4,5fda <_printf_i+0x22a>
    5f1e:	47a1                	li	a5,8
    5f20:	00f71e63          	bne	a4,a5,5f3c <_printf_i+0x18c>
    5f24:	401c                	lw	a5,0(s0)
    5f26:	8b85                	andi	a5,a5,1
    5f28:	cb91                	beqz	a5,5f3c <_printf_i+0x18c>
    5f2a:	4058                	lw	a4,4(s0)
    5f2c:	481c                	lw	a5,16(s0)
    5f2e:	00e7c763          	blt	a5,a4,5f3c <_printf_i+0x18c>
    5f32:	03000793          	li	a5,48
    5f36:	fefa8fa3          	sb	a5,-1(s5)
    5f3a:	1afd                	addi	s5,s5,-1
    5f3c:	41560633          	sub	a2,a2,s5
    5f40:	c810                	sw	a2,16(s0)
    5f42:	874e                	mv	a4,s3
    5f44:	86ca                	mv	a3,s2
    5f46:	0070                	addi	a2,sp,12
    5f48:	85a2                	mv	a1,s0
    5f4a:	8526                	mv	a0,s1
    5f4c:	d59ff0ef          	jal	ra,5ca4 <_printf_common>
    5f50:	5a7d                	li	s4,-1
    5f52:	0b451d63          	bne	a0,s4,600c <_printf_i+0x25c>
    5f56:	557d                	li	a0,-1
    5f58:	50b2                	lw	ra,44(sp)
    5f5a:	5422                	lw	s0,40(sp)
    5f5c:	5492                	lw	s1,36(sp)
    5f5e:	5902                	lw	s2,32(sp)
    5f60:	49f2                	lw	s3,28(sp)
    5f62:	4a62                	lw	s4,24(sp)
    5f64:	4ad2                	lw	s5,20(sp)
    5f66:	4b42                	lw	s6,16(sp)
    5f68:	6145                	addi	sp,sp,48
    5f6a:	8082                	ret
    5f6c:	04d582a3          	sb	a3,69(a1)
    5f70:	00000697          	auipc	a3,0x0
    5f74:	41468693          	addi	a3,a3,1044 # 6384 <__clz_tab+0x114>
    5f78:	400c                	lw	a1,0(s0)
    5f7a:	4308                	lw	a0,0(a4)
    5f7c:	0805f813          	andi	a6,a1,128
    5f80:	411c                	lw	a5,0(a0)
    5f82:	0511                	addi	a0,a0,4
    5f84:	02080d63          	beqz	a6,5fbe <_printf_i+0x20e>
    5f88:	c308                	sw	a0,0(a4)
    5f8a:	0015f713          	andi	a4,a1,1
    5f8e:	c701                	beqz	a4,5f96 <_printf_i+0x1e6>
    5f90:	0205e593          	ori	a1,a1,32
    5f94:	c00c                	sw	a1,0(s0)
    5f96:	4741                	li	a4,16
    5f98:	fbb9                	bnez	a5,5eee <_printf_i+0x13e>
    5f9a:	400c                	lw	a1,0(s0)
    5f9c:	fdf5f593          	andi	a1,a1,-33
    5fa0:	c00c                	sw	a1,0(s0)
    5fa2:	b7b1                	j	5eee <_printf_i+0x13e>
    5fa4:	419c                	lw	a5,0(a1)
    5fa6:	0207e793          	ori	a5,a5,32
    5faa:	c19c                	sw	a5,0(a1)
    5fac:	07800793          	li	a5,120
    5fb0:	04f402a3          	sb	a5,69(s0)
    5fb4:	00000697          	auipc	a3,0x0
    5fb8:	3e468693          	addi	a3,a3,996 # 6398 <__clz_tab+0x128>
    5fbc:	bf75                	j	5f78 <_printf_i+0x1c8>
    5fbe:	0405f813          	andi	a6,a1,64
    5fc2:	c308                	sw	a0,0(a4)
    5fc4:	fc0803e3          	beqz	a6,5f8a <_printf_i+0x1da>
    5fc8:	07c2                	slli	a5,a5,0x10
    5fca:	83c1                	srli	a5,a5,0x10
    5fcc:	bf7d                	j	5f8a <_printf_i+0x1da>
    5fce:	00000697          	auipc	a3,0x0
    5fd2:	3b668693          	addi	a3,a3,950 # 6384 <__clz_tab+0x114>
    5fd6:	4721                	li	a4,8
    5fd8:	bf19                	j	5eee <_printf_i+0x13e>
    5fda:	87ae                	mv	a5,a1
    5fdc:	b735                	j	5f08 <_printf_i+0x158>
    5fde:	4194                	lw	a3,0(a1)
    5fe0:	431c                	lw	a5,0(a4)
    5fe2:	49cc                	lw	a1,20(a1)
    5fe4:	0806f813          	andi	a6,a3,128
    5fe8:	00478513          	addi	a0,a5,4
    5fec:	00080663          	beqz	a6,5ff8 <_printf_i+0x248>
    5ff0:	c308                	sw	a0,0(a4)
    5ff2:	439c                	lw	a5,0(a5)
    5ff4:	c38c                	sw	a1,0(a5)
    5ff6:	a039                	j	6004 <_printf_i+0x254>
    5ff8:	c308                	sw	a0,0(a4)
    5ffa:	0406f693          	andi	a3,a3,64
    5ffe:	439c                	lw	a5,0(a5)
    6000:	daf5                	beqz	a3,5ff4 <_printf_i+0x244>
    6002:	a38e                	sh	a1,0(a5)
    6004:	00042823          	sw	zero,16(s0)
    6008:	8ab2                	mv	s5,a2
    600a:	bf25                	j	5f42 <_printf_i+0x192>
    600c:	4814                	lw	a3,16(s0)
    600e:	8656                	mv	a2,s5
    6010:	85ca                	mv	a1,s2
    6012:	8526                	mv	a0,s1
    6014:	9982                	jalr	s3
    6016:	f54500e3          	beq	a0,s4,5f56 <_printf_i+0x1a6>
    601a:	401c                	lw	a5,0(s0)
    601c:	8b89                	andi	a5,a5,2
    601e:	e78d                	bnez	a5,6048 <_printf_i+0x298>
    6020:	47b2                	lw	a5,12(sp)
    6022:	4448                	lw	a0,12(s0)
    6024:	f2f55ae3          	bge	a0,a5,5f58 <_printf_i+0x1a8>
    6028:	853e                	mv	a0,a5
    602a:	b73d                	j	5f58 <_printf_i+0x1a8>
    602c:	4685                	li	a3,1
    602e:	8656                	mv	a2,s5
    6030:	85ca                	mv	a1,s2
    6032:	8526                	mv	a0,s1
    6034:	9982                	jalr	s3
    6036:	f36500e3          	beq	a0,s6,5f56 <_printf_i+0x1a6>
    603a:	0a05                	addi	s4,s4,1
    603c:	445c                	lw	a5,12(s0)
    603e:	4732                	lw	a4,12(sp)
    6040:	8f99                	sub	a5,a5,a4
    6042:	fefa45e3          	blt	s4,a5,602c <_printf_i+0x27c>
    6046:	bfe9                	j	6020 <_printf_i+0x270>
    6048:	4a01                	li	s4,0
    604a:	01940a93          	addi	s5,s0,25
    604e:	5b7d                	li	s6,-1
    6050:	b7f5                	j	603c <_printf_i+0x28c>

00006052 <memchr>:
    6052:	0ff5f593          	andi	a1,a1,255
    6056:	962a                	add	a2,a2,a0
    6058:	00c51463          	bne	a0,a2,6060 <memchr+0xe>
    605c:	4501                	li	a0,0
    605e:	8082                	ret
    6060:	211c                	lbu	a5,0(a0)
    6062:	feb78ee3          	beq	a5,a1,605e <memchr+0xc>
    6066:	0505                	addi	a0,a0,1
    6068:	bfc5                	j	6058 <memchr+0x6>

0000606a <memmove>:
    606a:	04a5f163          	bgeu	a1,a0,60ac <memmove+0x42>
    606e:	00c586b3          	add	a3,a1,a2
    6072:	02d57d63          	bgeu	a0,a3,60ac <memmove+0x42>
    6076:	fff64593          	not	a1,a2
    607a:	4781                	li	a5,0
    607c:	17fd                	addi	a5,a5,-1
    607e:	00f59363          	bne	a1,a5,6084 <memmove+0x1a>
    6082:	8082                	ret
    6084:	00f68733          	add	a4,a3,a5
    6088:	00074803          	lbu	a6,0(a4)
    608c:	00c78733          	add	a4,a5,a2
    6090:	972a                	add	a4,a4,a0
    6092:	01070023          	sb	a6,0(a4)
    6096:	b7dd                	j	607c <memmove+0x12>
    6098:	00f58733          	add	a4,a1,a5
    609c:	2314                	lbu	a3,0(a4)
    609e:	00f50733          	add	a4,a0,a5
    60a2:	0785                	addi	a5,a5,1
    60a4:	a314                	sb	a3,0(a4)
    60a6:	fef619e3          	bne	a2,a5,6098 <memmove+0x2e>
    60aa:	8082                	ret
    60ac:	4781                	li	a5,0
    60ae:	bfe5                	j	60a6 <memmove+0x3c>

000060b0 <_realloc_r>:
    60b0:	e581                	bnez	a1,60b8 <_realloc_r+0x8>
    60b2:	85b2                	mv	a1,a2
    60b4:	f4aff06f          	j	57fe <_malloc_r>
    60b8:	1101                	addi	sp,sp,-32
    60ba:	cc22                	sw	s0,24(sp)
    60bc:	ce06                	sw	ra,28(sp)
    60be:	ca26                	sw	s1,20(sp)
    60c0:	c84a                	sw	s2,16(sp)
    60c2:	c64e                	sw	s3,12(sp)
    60c4:	8432                	mv	s0,a2
    60c6:	ee01                	bnez	a2,60de <_realloc_r+0x2e>
    60c8:	e92ff0ef          	jal	ra,575a <_free_r>
    60cc:	4901                	li	s2,0
    60ce:	40f2                	lw	ra,28(sp)
    60d0:	4462                	lw	s0,24(sp)
    60d2:	854a                	mv	a0,s2
    60d4:	44d2                	lw	s1,20(sp)
    60d6:	4942                	lw	s2,16(sp)
    60d8:	49b2                	lw	s3,12(sp)
    60da:	6105                	addi	sp,sp,32
    60dc:	8082                	ret
    60de:	84ae                	mv	s1,a1
    60e0:	89aa                	mv	s3,a0
    60e2:	201d                	jal	6108 <_malloc_usable_size_r>
    60e4:	8926                	mv	s2,s1
    60e6:	fe8574e3          	bgeu	a0,s0,60ce <_realloc_r+0x1e>
    60ea:	85a2                	mv	a1,s0
    60ec:	854e                	mv	a0,s3
    60ee:	f10ff0ef          	jal	ra,57fe <_malloc_r>
    60f2:	892a                	mv	s2,a0
    60f4:	dd69                	beqz	a0,60ce <_realloc_r+0x1e>
    60f6:	85a6                	mv	a1,s1
    60f8:	8622                	mv	a2,s0
    60fa:	daeff0ef          	jal	ra,56a8 <memcpy>
    60fe:	85a6                	mv	a1,s1
    6100:	854e                	mv	a0,s3
    6102:	e58ff0ef          	jal	ra,575a <_free_r>
    6106:	b7e1                	j	60ce <_realloc_r+0x1e>

00006108 <_malloc_usable_size_r>:
    6108:	ffc5a783          	lw	a5,-4(a1)
    610c:	ffc78513          	addi	a0,a5,-4
    6110:	0007d563          	bgez	a5,611a <_malloc_usable_size_r+0x12>
    6114:	95aa                	add	a1,a1,a0
    6116:	419c                	lw	a5,0(a1)
    6118:	953e                	add	a0,a0,a5
    611a:	8082                	ret
    611c:	74737953          	0x74737953
    6120:	6d65                	lui	s10,0x19
    6122:	3a6b6c43          	fmadd.d	fs8,fs6,ft6,ft7,unknown
    6126:	6425                	lui	s0,0x9
    6128:	0a0d                	addi	s4,s4,3
    612a:	0000                	unimp
    612c:	70696843          	fmadd.s	fa6,fs2,ft6,fa4,unknown
    6130:	4449                	li	s0,18
    6132:	253a                	lhu	a4,10(a0)
    6134:	3830                	lbu	a2,19(s0)
    6136:	0d78                	addi	a4,sp,668
    6138:	000a                	c.slli	zero,0x2
    613a:	0000                	unimp
    613c:	6f46                	flw	ft10,80(sp)
    613e:	7772                	flw	fa4,60(sp)
    6140:	7261                	lui	tp,0xffff8
    6142:	2064                	lbu	s1,6(s0)
    6144:	6f74                	flw	fa3,92(a4)
    6146:	4320                	lw	s0,64(a4)
    6148:	6d61                	lui	s10,0x18
    614a:	0a0d                	addi	s4,s4,3
    614c:	0000                	unimp
    614e:	0000                	unimp
    6150:	6f46                	flw	ft10,80(sp)
    6152:	7772                	flw	fa4,60(sp)
    6154:	7261                	lui	tp,0xffff8
    6156:	2064                	lbu	s1,6(s0)
    6158:	6f74                	flw	fa3,92(a4)
    615a:	4520                	lw	s0,72(a0)
    615c:	7458                	flw	fa4,44(s0)
    615e:	7265                	lui	tp,0xffff9
    6160:	0d6e                	slli	s10,s10,0x1b
    6162:	000a                	c.slli	zero,0x2
    6164:	5345                	li	t1,-15
    6166:	2050                	lbu	a2,4(s0)
    6168:	6461                	lui	s0,0x18
    616a:	6176                	flw	ft2,92(sp)
    616c:	636e                	flw	ft6,216(sp)
    616e:	0d65                	addi	s10,s10,25
    6170:	000a                	c.slli	zero,0x2
    6172:	0000                	unimp
    6174:	5345                	li	t1,-15
    6176:	2050                	lbu	a2,4(s0)
    6178:	6162                	flw	ft2,24(sp)
    617a:	0a0d6b63          	bltu	s10,zero,6230 <Servers+0x30>
    617e:	0000                	unimp
    6180:	5345                	li	t1,-15
    6182:	2050                	lbu	a2,4(s0)
    6184:	706f7453          	0x706f7453
    6188:	0a0d                	addi	s4,s4,3
	...
    6192:	0000                	unimp
    6194:	8000                	lbu	s0,0(sp)
    6196:	4066                	0x4066
    6198:	0000                	unimp
    619a:	0000                	unimp
    619c:	4000                	lw	s0,0(s0)
    619e:	407f                	0x407f

000061a0 <cmd_handlers>:
    61a0:	00c3 0000 3360 0000 00cc 0000 359c 0000     ....`3.......5..
    61b0:	00ce 0000 35d2 0000 00c9 0000 35ea 0000     .....5.......5..
    61c0:	00ca 0000 382c 0000 00cd 0000 3868 0000     ....,8......h8..

000061d0 <config>:
    61d0:	0400 4000 0001 0000 0002 0000 0400 4000     ...@...........@
    61e0:	0003 0000 0004 0000 0800 4000 0001 0000     ...........@....
    61f0:	0002 0000 0800 4000 0003 0000 0004 0000     .......@........

00006200 <Servers>:
    6200:	4c00 4001 27c6 0000 4c00 4001 27e8 0000     .L.@.'...L.@.'..
    6210:	3400 4001 27c6 0000 3400 4001 27e8 0000     .4.@.'...4.@.'..
    6220:	3400 4001 280a 0000 3400 4001 282c 0000     .4.@.(...4.@,(..
    6230:	efbc ffff ee44 ffff ef50 ffff ef58 ffff     ....D...P...X...
    6240:	ef50 ffff ee74 ffff ef50 ffff ef58 ffff     P...t...P...X...
    6250:	ee44 ffff ee44 ffff ee74 ffff ef58 ffff     D...D...t...X...
    6260:	efb2 ffff efb2 ffff efb2 ffff ee74 ffff     ............t...

00006270 <__clz_tab>:
    6270:	0100 0202 0303 0303 0404 0404 0404 0404     ................
    6280:	0505 0505 0505 0505 0505 0505 0505 0505     ................
    6290:	0606 0606 0606 0606 0606 0606 0606 0606     ................
    62a0:	0606 0606 0606 0606 0606 0606 0606 0606     ................
    62b0:	0707 0707 0707 0707 0707 0707 0707 0707     ................
    62c0:	0707 0707 0707 0707 0707 0707 0707 0707     ................
    62d0:	0707 0707 0707 0707 0707 0707 0707 0707     ................
    62e0:	0707 0707 0707 0707 0707 0707 0707 0707     ................
    62f0:	0808 0808 0808 0808 0808 0808 0808 0808     ................
    6300:	0808 0808 0808 0808 0808 0808 0808 0808     ................
    6310:	0808 0808 0808 0808 0808 0808 0808 0808     ................
    6320:	0808 0808 0808 0808 0808 0808 0808 0808     ................
    6330:	0808 0808 0808 0808 0808 0808 0808 0808     ................
    6340:	0808 0808 0808 0808 0808 0808 0808 0808     ................
    6350:	0808 0808 0808 0808 0808 0808 0808 0808     ................
    6360:	0808 0808 0808 0808 0808 0808 0808 0808     ................
    6370:	2d23 2b30 0020 0000 6c68 004c 6665 4567     #-0+ ...hlL.efgE
    6380:	4746 0000 3130 3332 3534 3736 3938 4241     FG..0123456789AB
    6390:	4443 4645 0000 0000 3130 3332 3534 3736     CDEF....01234567
    63a0:	3938 6261 6463 6665 0000 0000               89abcdef....
